
loader_block.o:     file format elf32-i386


Disassembly of section .text:

00010000 <LdrEntry16>:
   10000:	eb 02                	jmp    10004 <LdrEntry16.JmpOutLdrSignature>
   10002:	55                   	push   %ebp
   10003:	aa                   	stos   %al,%es:(%edi)

00010004 <LdrEntry16.JmpOutLdrSignature>:
   10004:	fc                   	cld    
   10005:	6a 00                	push   $0x0
   10007:	6a 00                	push   $0x0
   10009:	85 ff                	test   %edi,%edi
   1000b:	0f 84 c3 00 66 31    	je     316700d4 <_end+0x31650028>
   10011:	d2 8e c2 66 8b 46    	rorb   %cl,0x468b66c2(%esi)
   10017:	0a 66 2b             	or     0x2b(%esi),%ah
   1001a:	46                   	inc    %esi
   1001b:	1e                   	push   %ds
   1001c:	66 0f b6 4e 09       	movzbw 0x9(%esi),%cx
   10021:	66 f7 f1             	div    %cx
   10024:	66 3d f5 ff          	cmp    $0xfff5,%ax
   10028:	00 00                	add    %al,(%eax)
   1002a:	0f 83 a4 00 66 3d    	jae    3d6700d4 <_end+0x3d650028>
   10030:	f5                   	cmc    
   10031:	0f 00 00             	sldt   (%eax)
   10034:	0f 93 46 fa          	setae  -0x6(%esi)
   10038:	66 8b 4e 12          	mov    0x12(%esi),%cx
   1003c:	8b 46 0e             	mov    0xe(%esi),%eax
   1003f:	8b 56 10             	mov    0x10(%esi),%edx
   10042:	bb                   	.byte 0xbb
   10043:	00 08                	add    %cl,(%eax)

00010045 <_ReadFatSector>:
   10045:	e8 8e 00 0f 82       	call   821000d8 <_end+0x820e002c>
   1004a:	86 00                	xchg   %al,(%eax)
   1004c:	26 80 3f 00          	cmpb   $0x0,%es:(%edi)
   10050:	74 0b                	je     1005d <_ReadFatSector.Done>
   10052:	03 5e 07             	add    0x7(%esi),%ebx
   10055:	40                   	inc    %eax
   10056:	83 d2 00             	adc    $0x0,%edx
   10059:	66 49                	dec    %cx
   1005b:	75 e8                	jne    10045 <_ReadFatSector>

0001005d <_ReadFatSector.Done>:
   1005d:	8b 46 07             	mov    0x7(%esi),%eax
   10060:	0f b6 4e 09          	movzbl 0x9(%esi),%ecx
   10064:	f7 e1                	mul    %ecx
   10066:	c1 e8 04             	shr    $0x4,%eax
   10069:	05 00 10 8e c0       	add    $0xc08e1000,%eax
   1006e:	8b 5e 07             	mov    0x7(%esi),%ebx
   10071:	c1 eb 04             	shr    $0x4,%ebx

00010074 <_ReadLoaderSector>:
   10074:	89 f8                	mov    %edi,%eax
   10076:	51                   	push   %ecx
   10077:	b9 03 00 03 4e       	mov    $0x4e030003,%ecx
   1007c:	fa                   	cli    
   1007d:	f7 e1                	mul    %ecx
   1007f:	b1 02                	mov    $0x2,%cl
   10081:	f7 f1                	div    %ecx
   10083:	59                   	pop    %ecx
   10084:	89 c6                	mov    %eax,%esi
   10086:	b8 f8 ff 89 fa       	mov    $0xfa89fff8,%eax
   1008b:	8b bc 00 08 80 7e fa 	mov    -0x5817ff8(%eax,%eax,1),%edi
   10092:	01 74 11 80          	add    %esi,-0x80(%ecx,%edx,1)
   10096:	e4 0f                	in     $0xf,%al
   10098:	80 e2 01             	and    $0x1,%dl
   1009b:	74 05                	je     100a2 <_ReadLoaderSector.Even>
   1009d:	c1 ef 04             	shr    $0x4,%edi
   100a0:	eb 04                	jmp    100a6 <_ReadLoaderSector.Out>

000100a2 <_ReadLoaderSector.Even>:
   100a2:	81                   	.byte 0x81
   100a3:	e7 ff                	out    %eax,$0xff
   100a5:	0f                   	.byte 0xf

000100a6 <_ReadLoaderSector.Out>:
   100a6:	39 c7                	cmp    %eax,%edi
   100a8:	0f 83 a4 00 89 f8    	jae    f88a0152 <_end+0xf88800a6>
   100ae:	48                   	dec    %eax
   100af:	48                   	dec    %eax
   100b0:	0f b6 4e 09          	movzbl 0x9(%esi),%ecx
   100b4:	f7 e1                	mul    %ecx
   100b6:	03 46 1e             	add    0x1e(%esi),%eax
   100b9:	13 56 20             	adc    0x20(%esi),%edx

000100bc <_ReadOneCluster>:
   100bc:	53                   	push   %ebx
   100bd:	31 db                	xor    %ebx,%ebx
   100bf:	e8 14 00 5b 72       	call   725c00d8 <_end+0x725a002c>
   100c4:	0d 06 01 5e f6       	or     $0xf65e0106,%eax
   100c9:	07                   	pop    %es
   100ca:	40                   	inc    %eax
   100cb:	83 d2 00             	adc    $0x0,%edx
   100ce:	e2 ec                	loop   100bc <_ReadOneCluster>
   100d0:	eb a2                	jmp    10074 <_ReadLoaderSector>

000100d2 <_LoadFailed>:
   100d2:	83 c4 02             	add    $0x2,%esp
   100d5:	cb                   	lret   

000100d6 <ReadSector>:
   100d6:	60                   	pusha  
   100d7:	66 6a 00             	pushw  $0x0
   100da:	52                   	push   %edx
   100db:	50                   	push   %eax
   100dc:	06                   	push   %es
   100dd:	53                   	push   %ebx
   100de:	6a 01                	push   $0x1
   100e0:	6a 10                	push   $0x10
   100e2:	80 7e f8 01          	cmpb   $0x1,-0x8(%esi)
   100e6:	74 2b                	je     10113 <ReadSector.CHS.1>

000100e8 <ReadSector.LBA>:
   100e8:	89 e6                	mov    %esp,%esi
   100ea:	60                   	pusha  
   100eb:	b4 41                	mov    $0x41,%ah
   100ed:	bb aa 55 8a 56       	mov    $0x568a55aa,%ebx
   100f2:	06                   	push   %es
   100f3:	cd 13                	int    $0x13
   100f5:	72 17                	jb     1010e <ReadSector.CHS>
   100f7:	81 fb 55 aa 75 11    	cmp    $0x1175aa55,%ebx
   100fd:	f6 c1 01             	test   $0x1,%cl
   10100:	74 0c                	je     1010e <ReadSector.CHS>
   10102:	b4 42                	mov    $0x42,%ah
   10104:	8a 56 06             	mov    0x6(%esi),%dl
   10107:	cd 13                	int    $0x13
   10109:	72 03                	jb     1010e <ReadSector.CHS>
   1010b:	61                   	popa   
   1010c:	eb 22                	jmp    10130 <ReadSector.Exit>

0001010e <ReadSector.CHS>:
   1010e:	c6 46 f8 01          	movb   $0x1,-0x8(%esi)
   10112:	61                   	popa   

00010113 <ReadSector.CHS.1>:
   10113:	f7 76 00             	divl   0x0(%esi)
   10116:	88 d1                	mov    %dl,%cl
   10118:	fe c1                	inc    %cl
   1011a:	30 d2                	xor    %dl,%dl
   1011c:	f7 76 02             	divl   0x2(%esi)
   1011f:	88 d6                	mov    %dl,%dh
   10121:	88 c5                	mov    %al,%ch
   10123:	c0 e4 06             	shl    $0x6,%ah
   10126:	08 e1                	or     %ah,%cl
   10128:	b8 01 02 8a 56       	mov    $0x568a0201,%eax
   1012d:	06                   	push   %es
   1012e:	cd 13                	int    $0x13

00010130 <ReadSector.Exit>:
   10130:	61                   	popa   
   10131:	61                   	popa   
   10132:	c3                   	ret    

00010133 <DispStr>:
   10133:	60                   	pusha  
   10134:	b4 0e                	mov    $0xe,%ah
   10136:	bb                   	.byte 0xbb
   10137:	07                   	pop    %es
	...

00010139 <DispStr.Loop>:
   10139:	ac                   	lods   %ds:(%esi),%al
   1013a:	84 c0                	test   %al,%al
   1013c:	74 04                	je     10142 <DispStr.Exit>
   1013e:	cd 10                	int    $0x10
   10140:	eb f7                	jmp    10139 <DispStr.Loop>

00010142 <DispStr.Exit>:
   10142:	b0 0d                	mov    $0xd,%al
   10144:	cd 10                	int    $0x10
   10146:	b0 0a                	mov    $0xa,%al
   10148:	cd 10                	int    $0x10
   1014a:	30 e4                	xor    %ah,%ah
   1014c:	cd 16                	int    $0x16
   1014e:	61                   	popa   
   1014f:	c3                   	ret    

00010150 <_LoadDone>:
   10150:	e8 9d 12 0f 82       	call   821013f2 <_end+0x820e1346>
   10155:	7b ff                	jnp    10156 <_LoadDone+0x6>

00010157 <_CopyLoaderParameter>:
   10157:	b8 00 10 8e c0       	mov    $0xc08e1000,%eax
   1015c:	89 ee                	mov    %ebp,%esi
   1015e:	bf 7c 04 b9 13       	mov    $0x13b9047c,%edi
   10163:	00 f3                	add    %dh,%bl
   10165:	a5                   	movsl  %ds:(%esi),%es:(%edi)

00010166 <_GetMemMap>:
   10166:	b8 00 10 8e c0       	mov    $0xc08e1000,%eax
   1016b:	bf e0 04 66 31       	mov    $0x316604e0,%edi
   10170:	db 66 ba             	(bad)  -0x46(%esi)
   10173:	50                   	push   %eax
   10174:	41                   	inc    %ecx
   10175:	4d                   	dec    %ebp
   10176:	53                   	push   %ebx
   10177:	66 b9 14 00          	mov    $0x14,%cx
	...

0001017d <_GetMemMap.E820>:
   1017d:	66 b8 20 e8          	mov    $0xe820,%ax
   10181:	00 00                	add    %al,(%eax)
   10183:	cd 15                	int    $0x15
   10185:	72 19                	jb     101a0 <_GetMemMap.E801>
   10187:	66 3d 50 41          	cmp    $0x4150,%ax
   1018b:	4d                   	dec    %ebp
   1018c:	53                   	push   %ebx
   1018d:	75 11                	jne    101a0 <_GetMemMap.E801>
   1018f:	66 83 f9 14          	cmp    $0x14,%cx
   10193:	75 0b                	jne    101a0 <_GetMemMap.E801>
   10195:	83 c7 14             	add    $0x14,%edi
   10198:	66 85 db             	test   %bx,%bx
   1019b:	75 e0                	jne    1017d <_GetMemMap.E820>
   1019d:	e9                   	.byte 0xe9
   1019e:	b8                   	.byte 0xb8
	...

000101a0 <_GetMemMap.E801>:
   101a0:	b8 01 e8 cd 15       	mov    $0x15cde801,%eax
   101a5:	72 77                	jb     1021e <_GetMemMap.88>
   101a7:	bf e0 04 85 c0       	mov    $0xc08504e0,%edi
   101ac:	74 06                	je     101b4 <_GetMemMap.1>
   101ae:	66 0f b7 c0          	movzww %ax,%ax
   101b2:	eb 04                	jmp    101b8 <_GetMemMap.2>

000101b4 <_GetMemMap.1>:
   101b4:	66 0f b7 c1          	movzww %cx,%ax

000101b8 <_GetMemMap.2>:
   101b8:	85 db                	test   %ebx,%ebx
   101ba:	74 06                	je     101c2 <_GetMemMap.3>
   101bc:	66 0f b7 db          	movzww %bx,%bx
   101c0:	eb 04                	jmp    101c6 <_GetMemMap.4>

000101c2 <_GetMemMap.3>:
   101c2:	66 0f b7 da          	movzww %dx,%bx

000101c6 <_GetMemMap.4>:
   101c6:	66 b9 00 04          	mov    $0x400,%cx
   101ca:	00 00                	add    %al,(%eax)
   101cc:	66 f7 e1             	mul    %cx
   101cf:	66 89 c1             	mov    %ax,%cx
   101d2:	66 b8 00 00          	mov    $0x0,%ax
   101d6:	10 00                	adc    %al,(%eax)
   101d8:	66 ab                	stos   %ax,%es:(%edi)
   101da:	66 31 c0             	xor    %ax,%ax
   101dd:	66 ab                	stos   %ax,%es:(%edi)
   101df:	66 89 c8             	mov    %cx,%ax
   101e2:	66 ab                	stos   %ax,%es:(%edi)
   101e4:	66 89 d0             	mov    %dx,%ax
   101e7:	66 ab                	stos   %ax,%es:(%edi)
   101e9:	66 b8 01 00          	mov    $0x1,%ax
   101ed:	00 00                	add    %al,(%eax)
   101ef:	66 ab                	stos   %ax,%es:(%edi)
   101f1:	66 b8 00 00          	mov    $0x0,%ax
   101f5:	01 00                	add    %eax,(%eax)
   101f7:	66 f7 e3             	mul    %bx
   101fa:	66 89 c1             	mov    %ax,%cx
   101fd:	66 b8 00 00          	mov    $0x0,%ax
   10201:	00 01                	add    %al,(%ecx)
   10203:	66 ab                	stos   %ax,%es:(%edi)
   10205:	66 31 c0             	xor    %ax,%ax
   10208:	66 ab                	stos   %ax,%es:(%edi)
   1020a:	66 89 c8             	mov    %cx,%ax
   1020d:	66 ab                	stos   %ax,%es:(%edi)
   1020f:	66 89 d0             	mov    %dx,%ax
   10212:	66 ab                	stos   %ax,%es:(%edi)
   10214:	66 b8 01 00          	mov    $0x1,%ax
   10218:	00 00                	add    %al,(%eax)
   1021a:	66 ab                	stos   %ax,%es:(%edi)
   1021c:	eb 3a                	jmp    10258 <_GetMemMap.Exit>

0001021e <_GetMemMap.88>:
   1021e:	b4 88                	mov    $0x88,%ah
   10220:	cd 15                	int    $0x15
   10222:	0f 82 ac fe bf e0    	jb     e0c100d4 <_end+0xe0bf0028>
   10228:	04 66                	add    $0x66,%al
   1022a:	0f b7 c0             	movzwl %ax,%eax
   1022d:	66 b9 00 04          	mov    $0x400,%cx
   10231:	00 00                	add    %al,(%eax)
   10233:	66 f7 e1             	mul    %cx
   10236:	66 89 c1             	mov    %ax,%cx
   10239:	66 b8 00 00          	mov    $0x0,%ax
   1023d:	10 00                	adc    %al,(%eax)
   1023f:	66 ab                	stos   %ax,%es:(%edi)
   10241:	66 31 c0             	xor    %ax,%ax
   10244:	66 ab                	stos   %ax,%es:(%edi)
   10246:	66 89 c8             	mov    %cx,%ax
   10249:	66 ab                	stos   %ax,%es:(%edi)
   1024b:	66 89 d0             	mov    %dx,%ax
   1024e:	66 ab                	stos   %ax,%es:(%edi)
   10250:	66 b8 01 00          	mov    $0x1,%ax
   10254:	00 00                	add    %al,(%eax)
   10256:	66 ab                	stos   %ax,%es:(%edi)

00010258 <_GetMemMap.Exit>:
   10258:	b8 00 10 8e d8       	mov    $0xd88e1000,%eax
   1025d:	c1 e8 04             	shr    $0x4,%eax
   10260:	8e c0                	mov    %eax,%es
   10262:	b8 00 4f 31 ff       	mov    $0xff314f00,%eax
   10267:	26 66 c7 05 56 42 45 	movw   $0x10cd,%es:0x32454256
   1026e:	32 cd 10 
   10271:	83 f8 4f             	cmp    $0x4f,%eax
   10274:	0f 85 d0 00 26 66    	jne    6627034a <_end+0x6625029e>
   1027a:	81 3d 56 45 53 41 0f 	cmpl   $0xc4850f,0x41534556
   10281:	85 c4 00 
   10284:	26 8b 45 04          	mov    %es:0x4(%ebp),%eax
   10288:	3d 00 02 0f 82       	cmp    $0x820f0200,%eax
   1028d:	b9 00 a3 a5 04       	mov    $0x4a5a300,%ecx
   10292:	26 8b 45 12          	mov    %es:0x12(%ebp),%eax
   10296:	a3 b5 04 26 8b       	mov    %eax,0x8b2604b5
   1029b:	45                   	inc    %ebp
   1029c:	14 a3                	adc    $0xa3,%al
   1029e:	a7                   	cmpsl  %es:(%edi),%ds:(%esi)
   1029f:	04 26                	add    $0x26,%al
   102a1:	66 ff 75 06          	pushw  0x6(%ebp)
   102a5:	5e                   	pop    %esi
   102a6:	1f                   	pop    %ds
   102a7:	e8 89 fe 26 66       	call   66280135 <_end+0x66260089>
   102ac:	ff 75 0e             	push   0xe(%ebp)
   102af:	5e                   	pop    %esi
   102b0:	1f                   	pop    %ds
   102b1:	68 00 10 07 bf       	push   $0xbf071000
   102b6:	e0 09                	loopne 102c1 <_SetupConsoleMode.GUI+0x2>

000102b8 <_SetupConsoleMode.CopyVideoMode>:
   102b8:	ad                   	lods   %ds:(%esi),%eax
   102b9:	ab                   	stos   %eax,%es:(%edi)
   102ba:	83 f8 ff             	cmp    $0xffffffff,%eax
   102bd:	75 f9                	jne    102b8 <_SetupConsoleMode.CopyVideoMode>

000102bf <_SetupConsoleMode.GUI>:
   102bf:	b8 00 10 8e d8       	mov    $0xd88e1000,%eax
   102c4:	c1 e8 04             	shr    $0x4,%eax
   102c7:	8e c0                	mov    %eax,%es
   102c9:	be                   	.byte 0xbe
   102ca:	e0 09                	loopne 102d5 <_SetupConsoleMode.LookupTargetMode+0x9>

000102cc <_SetupConsoleMode.LookupTargetMode>:
   102cc:	ad                   	lods   %ds:(%esi),%eax
   102cd:	83 f8 ff             	cmp    $0xffffffff,%eax
   102d0:	74 76                	je     10348 <_SetupConsoleMode.Legacy>
   102d2:	89 c1                	mov    %eax,%ecx
   102d4:	89 c3                	mov    %eax,%ebx
   102d6:	31 ff                	xor    %edi,%edi
   102d8:	b8 01 4f cd 10       	mov    $0x10cd4f01,%eax
   102dd:	83 f8 4f             	cmp    $0x4f,%eax
   102e0:	75 ea                	jne    102cc <_SetupConsoleMode.LookupTargetMode>
   102e2:	26 8a 05 24 9b 3c 9b 	mov    %es:0x9b3c9b24,%al
   102e9:	75 e1                	jne    102cc <_SetupConsoleMode.LookupTargetMode>
   102eb:	26 8a 45 1b          	mov    %es:0x1b(%ebp),%al
   102ef:	3c 06                	cmp    $0x6,%al
   102f1:	75 d9                	jne    102cc <_SetupConsoleMode.LookupTargetMode>
   102f3:	26 8a 45 1f          	mov    %es:0x1f(%ebp),%al
   102f7:	3c 08                	cmp    $0x8,%al
   102f9:	75 d1                	jne    102cc <_SetupConsoleMode.LookupTargetMode>
   102fb:	26 8a 45 21          	mov    %es:0x21(%ebp),%al
   102ff:	3c 08                	cmp    $0x8,%al
   10301:	75 c9                	jne    102cc <_SetupConsoleMode.LookupTargetMode>
   10303:	26 8a 45 23          	mov    %es:0x23(%ebp),%al
   10307:	3c 08                	cmp    $0x8,%al
   10309:	75 c1                	jne    102cc <_SetupConsoleMode.LookupTargetMode>
   1030b:	26 8a 45 19          	mov    %es:0x19(%ebp),%al
   1030f:	3c 18                	cmp    $0x18,%al
   10311:	72 b9                	jb     102cc <_SetupConsoleMode.LookupTargetMode>
   10313:	a2 b7 04 26 8b       	mov    %al,0x8b2604b7
   10318:	45                   	inc    %ebp
   10319:	12 3d 20 03 72 ad    	adc    0xad720320,%bh
   1031f:	a3 a9 04 26 8b       	mov    %eax,0x8b2604a9
   10324:	45                   	inc    %ebp
   10325:	10 a3 b8 04 26 8b    	adc    %ah,-0x74d9fb48(%ebx)
   1032b:	45                   	inc    %ebp
   1032c:	14 a3                	adc    $0xa3,%al
   1032e:	ab                   	stos   %eax,%es:(%edi)
   1032f:	04 26                	add    $0x26,%al
   10331:	66 8b 45 28          	mov    0x28(%ebp),%ax
   10335:	66 a3 ad 04 80 cf    	mov    %ax,0xcf8004ad
   1033b:	40                   	inc    %eax
   1033c:	b8 02 4f cd 10       	mov    $0x10cd4f02,%eax
   10341:	83 f8 4f             	cmp    $0x4f,%eax
   10344:	75 86                	jne    102cc <_SetupConsoleMode.LookupTargetMode>
   10346:	eb 30                	jmp    10378 <_SetupConsoleMode.Exit>

00010348 <_SetupConsoleMode.Legacy>:
   10348:	b8 03 00 cd 10       	mov    $0x10cd0003,%eax
   1034d:	c6 06 a4             	movb   $0xa4,(%esi)
   10350:	04 00                	add    $0x0,%al
   10352:	c7 06 a9 04 50 00    	movl   $0x5004a9,(%esi)
   10358:	c7 06 ab 04 19 00    	movl   $0x1904ab,(%esi)
   1035e:	66 c7 06 ad 04       	movw   $0x4ad,(%esi)
   10363:	00 80 0b 00 c7 06    	add    %al,0x6c7000b(%eax)
   10369:	b5 04                	mov    $0x4,%ch
   1036b:	a0 0f c6 06 b7       	mov    0xb706c60f,%al
   10370:	04 10                	add    $0x10,%al
   10372:	c7 06 b8 04 a0 00    	movl   $0xa004b8,(%esi)

00010378 <_SetupConsoleMode.Exit>:
   10378:	b8 01 b1 cd 1a       	mov    $0x1acdb101,%eax
   1037d:	72 1d                	jb     1039c <_SetupAPM>
   1037f:	84 e4                	test   %ah,%ah
   10381:	75 19                	jne    1039c <_SetupAPM>
   10383:	66 81 fa 50 43       	cmp    $0x4350,%dx
   10388:	49                   	dec    %ecx
   10389:	20 75 10             	and    %dh,0x10(%ebp)
   1038c:	89 1e                	mov    %ebx,(%esi)
   1038e:	bc 04 a2 be 04       	mov    $0x4bea204,%esp
   10393:	88 0e                	mov    %cl,(%esi)
   10395:	bf 04 c6 06 c0       	mov    $0xc006c604,%edi
   1039a:	04 01                	add    $0x1,%al

0001039c <_SetupAPM>:
   1039c:	b8 00 53 31 db       	mov    $0xdb315300,%eax
   103a1:	cd 15                	int    $0x15
   103a3:	72 62                	jb     10407 <_SetupAPM.Exit>
   103a5:	81 fb 4d 50 75 5c    	cmp    $0x5c75504d,%ebx
   103ab:	f6 c1 02             	test   $0x2,%cl
   103ae:	74 57                	je     10407 <_SetupAPM.Exit>
   103b0:	a3 c4 04 88 0e       	mov    %eax,0xe8804c4
   103b5:	c6 04 b8 04          	movb   $0x4,(%eax,%edi,4)
   103b9:	53                   	push   %ebx
   103ba:	31 db                	xor    %ebx,%ebx
   103bc:	cd 15                	int    $0x15
   103be:	b8 03 53 31 db       	mov    $0xdb315303,%eax
   103c3:	cd 15                	int    $0x15
   103c5:	72 40                	jb     10407 <_SetupAPM.Exit>
   103c7:	66 0f b7 c0          	movzww %ax,%ax
   103cb:	66 c1 e0 04          	shl    $0x4,%ax
   103cf:	66 a3 c7 04 89 36    	mov    %ax,0x368904c7
   103d5:	cb                   	lret   
   103d6:	04 66                	add    $0x66,%al
   103d8:	0f b7 c9             	movzwl %cx,%ecx
   103db:	66 c1 e1 04          	shl    $0x4,%cx
   103df:	66 89 0e             	mov    %cx,(%esi)
   103e2:	cd 04                	int    $0x4
   103e4:	66 c1 ee 10          	shr    $0x10,%si
   103e8:	89 36                	mov    %esi,(%esi)
   103ea:	d1 04 66             	roll   (%esi,%eiz,2)
   103ed:	0f b7 d2             	movzwl %dx,%edx
   103f0:	66 c1 e2 04          	shl    $0x4,%dx
   103f4:	66 89 16             	mov    %dx,(%esi)
   103f7:	d3 04 89             	roll   %cl,(%ecx,%ecx,4)
   103fa:	3e d7                	xlat   %ds:(%ebx)
   103fc:	04 66                	add    $0x66,%al
   103fe:	89 1e                	mov    %ebx,(%esi)
   10400:	d9 04 c6             	flds   (%esi,%eax,8)
   10403:	06                   	push   %es
   10404:	dd 04 01             	fldl   (%ecx,%eax,1)

00010407 <_SetupAPM.Exit>:
   10407:	fa                   	cli    
   10408:	b0 80                	mov    $0x80,%al
   1040a:	e6 70                	out    %al,$0x70
   1040c:	30 c0                	xor    %al,%al
   1040e:	e6 f0                	out    %al,$0xf0
   10410:	e6 f1                	out    %al,$0xf1
   10412:	f6 d0                	not    %al
   10414:	e6 a1                	out    %al,$0xa1
   10416:	b0 fb                	mov    $0xfb,%al
   10418:	e6 21                	out    %al,$0x21
   1041a:	0f 01 16             	lgdtl  (%esi)
   1041d:	e0 0b                	loopne 1042a <_SetupAPM.Exit+0x23>
   1041f:	0f 01 1e             	lidtl  (%esi)
   10422:	e8 13 0f 01 e0       	call   e002133a <_end+0xe000128e>
   10427:	0c 01                	or     $0x1,%al
   10429:	0f 01 f0             	lmsw   %ax
   1042c:	66 ea 34 04 01 00    	ljmpw  $0x1,$0x434
   10432:	08 00                	or     %al,(%eax)

00010434 <LdrEntry32>:
   10434:	66 b8 10 00          	mov    $0x10,%ax
   10438:	8e d8                	mov    %eax,%ds
   1043a:	8e c0                	mov    %eax,%es
   1043c:	8e d0                	mov    %eax,%ss
   1043e:	66 31 c0             	xor    %ax,%ax
   10441:	8e e0                	mov    %eax,%fs
   10443:	8e e8                	mov    %eax,%gs
   10445:	bd 00 20 00 00       	mov    $0x2000,%ebp
   1044a:	89 ec                	mov    %ebp,%esp
   1044c:	66 0f 01 e0          	smsw   %ax
   10450:	0c 22                	or     $0x22,%al
   10452:	24 f3                	and    $0xf3,%al
   10454:	0f 01 f0             	lmsw   %ax
   10457:	9b db e3             	finit  
   1045a:	68 68 04 01 00       	push   $0x10468
   1045f:	e8 c7 63 00 00       	call   1682b <LdrMain>
   10464:	eb fe                	jmp    10464 <LdrEntry32+0x30>
   10466:	90                   	nop
   10467:	90                   	nop

00010468 <LdrParameter>:
   10468:	7c 04                	jl     1046e <LdrParameter+0x6>
   1046a:	01 00                	add    %eax,(%eax)
   1046c:	a4                   	movsb  %ds:(%esi),%es:(%edi)
   1046d:	04 01                	add    $0x1,%al
   1046f:	00 bc 04 01 00 c4 04 	add    %bh,0x4c40001(%esp,%eax,1)
   10476:	01 00                	add    %eax,(%eax)
   10478:	e0 04                	loopne 1047e <LdrParameter+0x16>
   1047a:	01 00                	add    %eax,(%eax)
	...
   104a0:	00 00                	add    %al,(%eax)
   104a2:	90                   	nop
   104a3:	90                   	nop
   104a4:	01 00                	add    %eax,(%eax)
	...
   104ae:	00 00                	add    %al,(%eax)
   104b0:	00 e0                	add    %ah,%al
   104b2:	09 01                	or     %eax,(%ecx)
   104b4:	00 00                	add    %al,(%eax)
   104b6:	00 00                	add    %al,(%eax)
   104b8:	00 00                	add    %al,(%eax)
   104ba:	90                   	nop
   104bb:	90                   	nop
   104bc:	00 00                	add    %al,(%eax)
   104be:	00 00                	add    %al,(%eax)
   104c0:	00 90 90 90 00 00    	add    %dl,0x9090(%eax)
	...
   104de:	90                   	nop
   104df:	90                   	nop
	...
   109e0:	ff                   	(bad)  
   109e1:	ff 00                	incl   (%eax)
	...

00010ae0 <gdt_begin>:
	...

00010ae8 <kcode>:
   10ae8:	ff                   	(bad)  
   10ae9:	ff 00                	incl   (%eax)
   10aeb:	00 00                	add    %al,(%eax)
   10aed:	9a                   	.byte 0x9a
   10aee:	cf                   	iret   
	...

00010af0 <kdata>:
   10af0:	ff                   	(bad)  
   10af1:	ff 00                	incl   (%eax)
   10af3:	00 00                	add    %al,(%eax)
   10af5:	92                   	xchg   %eax,%edx
   10af6:	cf                   	iret   
	...

00010af8 <gdt_dummpy>:
	...

00010be0 <gdt_end>:
   10be0:	ff 00                	incl   (%eax)
   10be2:	e0 0a                	loopne 10bee <idt_begin+0x6>
   10be4:	01 00                	add    %eax,(%eax)
   10be6:	90                   	nop
   10be7:	90                   	nop

00010be8 <idt_begin>:
	...

000113e8 <idt_end>:
   113e8:	ff 07                	incl   (%edi)
   113ea:	e8 0b 01 00 66       	call   660114fa <_end+0x65ff144e>
   113ef:	90                   	nop

000113f0 <A20_Gate>:
   113f0:	e8 72 00 73 20       	call   20741467 <_end+0x207213bb>
   113f5:	e8 1e 00 e8 6a       	call   6ae91418 <_end+0x6ae7136c>
   113fa:	00 73 18             	add    %dh,0x18(%ebx)
   113fd:	e8 1c 00 e8 62       	call   62e9141e <_end+0x62e71372>
   11402:	00 73 10             	add    %dh,0x10(%ebx)
   11405:	e8 4d 00 e8 5a       	call   5ae91457 <_end+0x5ae713ab>
   1140a:	00 73 08             	add    %dh,0x8(%ebx)
   1140d:	e8 52 00 e8 52       	call   52e91464 <_end+0x52e713b8>
   11412:	00 73 00             	add    %dh,0x0(%ebx)

00011415 <A20_Gate.Exit>:
   11415:	c3                   	ret    

00011416 <A20_Gate_Bios>:
   11416:	b8 01 24 cd 15       	mov    $0x15cd2401,%eax
   1141b:	c3                   	ret    

0001141c <A20_Gate_8042>:
   1141c:	b0 ad                	mov    $0xad,%al
   1141e:	e6 64                	out    %al,$0x64
   11420:	b0 a7                	mov    $0xa7,%al
   11422:	e6 64                	out    %al,$0x64

00011424 <A20_Gate_8042.empty_outbuf>:
   11424:	e4 64                	in     $0x64,%al
   11426:	a8 01                	test   $0x1,%al
   11428:	74 04                	je     1142e <A20_Gate_8042.empty>
   1142a:	e4 60                	in     $0x60,%al
   1142c:	eb f6                	jmp    11424 <A20_Gate_8042.empty_outbuf>

0001142e <A20_Gate_8042.empty>:
   1142e:	e8 74 00 b0 d0       	call   d0b114a7 <_end+0xd0af13fb>
   11433:	e6 64                	out    %al,$0x64
   11435:	e8 66 00 e4 60       	call   60e514a0 <_end+0x60e313f4>
   1143a:	50                   	push   %eax
   1143b:	e8 67 00 b0 d1       	call   d1b114a7 <_end+0xd1af13fb>
   11440:	e6 64                	out    %al,$0x64
   11442:	e8 60 00 58 0c       	call   c5914a7 <_end+0xc5713fb>
   11447:	02 e6                	add    %dh,%ah
   11449:	60                   	pusha  
   1144a:	e8 58 00 b0 ae       	call   aeb114a7 <_end+0xaeaf13fb>
   1144f:	e6 64                	out    %al,$0x64
   11451:	e8                   	.byte 0xe8
   11452:	51                   	push   %ecx
   11453:	00 c3                	add    %al,%bl

00011455 <A20_Gate_FastGate>:
   11455:	e4 92                	in     $0x92,%al
   11457:	a8 02                	test   $0x2,%al
   11459:	75 06                	jne    11461 <A20_Gate_FastGate.Exit>
   1145b:	0c 02                	or     $0x2,%al
   1145d:	24 fe                	and    $0xfe,%al
   1145f:	e6 92                	out    %al,$0x92

00011461 <A20_Gate_FastGate.Exit>:
   11461:	c3                   	ret    

00011462 <A20_Gate_PortEE>:
   11462:	e4 ee                	in     $0xee,%al
   11464:	c3                   	ret    

00011465 <CheckA20>:
   11465:	56                   	push   %esi
   11466:	57                   	push   %edi
   11467:	50                   	push   %eax
   11468:	1e                   	push   %ds
   11469:	06                   	push   %es
   1146a:	31 c0                	xor    %eax,%eax
   1146c:	8e d8                	mov    %eax,%ds
   1146e:	f7 d0                	not    %eax
   11470:	8e c0                	mov    %eax,%es
   11472:	be 00 05 bf 10       	mov    $0x10bf0500,%esi
   11477:	05 3e 8a 04 50       	add    $0x50048a3e,%eax
   1147c:	26 8a 05 50 3e c6 04 	mov    %es:0x4c63e50,%al
   11483:	00 26                	add    %ah,(%esi)
   11485:	c6 05 ff 3e 80 3c ff 	movb   $0xff,0x3c803eff
   1148c:	58                   	pop    %eax
   1148d:	26 88 05 58 3e 88 04 	mov    %al,%es:0x4883e58
   11494:	f9                   	stc    
   11495:	74 01                	je     11498 <CheckA20.Exit>
   11497:	f8                   	clc    

00011498 <CheckA20.Exit>:
   11498:	07                   	pop    %es
   11499:	1f                   	pop    %ds
   1149a:	58                   	pop    %eax
   1149b:	5f                   	pop    %edi
   1149c:	5e                   	pop    %esi
   1149d:	c3                   	ret    

0001149e <Wait_8042_Read>:
   1149e:	e4 64                	in     $0x64,%al
   114a0:	a8 01                	test   $0x1,%al
   114a2:	75 fa                	jne    1149e <Wait_8042_Read>
   114a4:	c3                   	ret    

000114a5 <Wait_8042_Write>:
   114a5:	e4 64                	in     $0x64,%al
   114a7:	a8 02                	test   $0x2,%al
   114a9:	75 fa                	jne    114a5 <Wait_8042_Write>
   114ab:	c3                   	ret    
   114ac:	66 90                	xchg   %ax,%ax
   114ae:	66 90                	xchg   %ax,%ax

000114b0 <kTrap0>:
   114b0:	6a 00                	push   $0x0
   114b2:	6a 00                	push   $0x0
   114b4:	ff 74 24 10          	push   0x10(%esp)
   114b8:	ff 74 24 10          	push   0x10(%esp)
   114bc:	ff 74 24 10          	push   0x10(%esp)
   114c0:	60                   	pusha  
   114c1:	0f 20 e0             	mov    %cr4,%eax
   114c4:	50                   	push   %eax
   114c5:	0f 20 d8             	mov    %cr3,%eax
   114c8:	50                   	push   %eax
   114c9:	0f 20 d0             	mov    %cr2,%eax
   114cc:	50                   	push   %eax
   114cd:	0f 20 c0             	mov    %cr0,%eax
   114d0:	50                   	push   %eax
   114d1:	e8 03 30 00 00       	call   144d9 <common_trap_handler>
   114d6:	83 c4 10             	add    $0x10,%esp
   114d9:	61                   	popa   
   114da:	83 c4 0c             	add    $0xc,%esp
   114dd:	83 c4 08             	add    $0x8,%esp
   114e0:	cf                   	iret   
   114e1:	90                   	nop
   114e2:	90                   	nop
   114e3:	90                   	nop

000114e4 <kTrap1>:
   114e4:	6a 00                	push   $0x0
   114e6:	6a 01                	push   $0x1
   114e8:	ff 74 24 10          	push   0x10(%esp)
   114ec:	ff 74 24 10          	push   0x10(%esp)
   114f0:	ff 74 24 10          	push   0x10(%esp)
   114f4:	60                   	pusha  
   114f5:	0f 20 e0             	mov    %cr4,%eax
   114f8:	50                   	push   %eax
   114f9:	0f 20 d8             	mov    %cr3,%eax
   114fc:	50                   	push   %eax
   114fd:	0f 20 d0             	mov    %cr2,%eax
   11500:	50                   	push   %eax
   11501:	0f 20 c0             	mov    %cr0,%eax
   11504:	50                   	push   %eax
   11505:	e8 cf 2f 00 00       	call   144d9 <common_trap_handler>
   1150a:	83 c4 10             	add    $0x10,%esp
   1150d:	61                   	popa   
   1150e:	83 c4 0c             	add    $0xc,%esp
   11511:	83 c4 08             	add    $0x8,%esp
   11514:	cf                   	iret   
   11515:	90                   	nop
   11516:	90                   	nop
   11517:	90                   	nop

00011518 <kTrap2>:
   11518:	6a 00                	push   $0x0
   1151a:	6a 02                	push   $0x2
   1151c:	ff 74 24 10          	push   0x10(%esp)
   11520:	ff 74 24 10          	push   0x10(%esp)
   11524:	ff 74 24 10          	push   0x10(%esp)
   11528:	60                   	pusha  
   11529:	0f 20 e0             	mov    %cr4,%eax
   1152c:	50                   	push   %eax
   1152d:	0f 20 d8             	mov    %cr3,%eax
   11530:	50                   	push   %eax
   11531:	0f 20 d0             	mov    %cr2,%eax
   11534:	50                   	push   %eax
   11535:	0f 20 c0             	mov    %cr0,%eax
   11538:	50                   	push   %eax
   11539:	e8 9b 2f 00 00       	call   144d9 <common_trap_handler>
   1153e:	83 c4 10             	add    $0x10,%esp
   11541:	61                   	popa   
   11542:	83 c4 0c             	add    $0xc,%esp
   11545:	83 c4 08             	add    $0x8,%esp
   11548:	cf                   	iret   
   11549:	90                   	nop
   1154a:	90                   	nop
   1154b:	90                   	nop

0001154c <kTrap3>:
   1154c:	6a 00                	push   $0x0
   1154e:	6a 03                	push   $0x3
   11550:	ff 74 24 10          	push   0x10(%esp)
   11554:	ff 74 24 10          	push   0x10(%esp)
   11558:	ff 74 24 10          	push   0x10(%esp)
   1155c:	60                   	pusha  
   1155d:	0f 20 e0             	mov    %cr4,%eax
   11560:	50                   	push   %eax
   11561:	0f 20 d8             	mov    %cr3,%eax
   11564:	50                   	push   %eax
   11565:	0f 20 d0             	mov    %cr2,%eax
   11568:	50                   	push   %eax
   11569:	0f 20 c0             	mov    %cr0,%eax
   1156c:	50                   	push   %eax
   1156d:	e8 67 2f 00 00       	call   144d9 <common_trap_handler>
   11572:	83 c4 10             	add    $0x10,%esp
   11575:	61                   	popa   
   11576:	83 c4 0c             	add    $0xc,%esp
   11579:	83 c4 08             	add    $0x8,%esp
   1157c:	cf                   	iret   
   1157d:	90                   	nop
   1157e:	90                   	nop
   1157f:	90                   	nop

00011580 <kTrap4>:
   11580:	6a 00                	push   $0x0
   11582:	6a 04                	push   $0x4
   11584:	ff 74 24 10          	push   0x10(%esp)
   11588:	ff 74 24 10          	push   0x10(%esp)
   1158c:	ff 74 24 10          	push   0x10(%esp)
   11590:	60                   	pusha  
   11591:	0f 20 e0             	mov    %cr4,%eax
   11594:	50                   	push   %eax
   11595:	0f 20 d8             	mov    %cr3,%eax
   11598:	50                   	push   %eax
   11599:	0f 20 d0             	mov    %cr2,%eax
   1159c:	50                   	push   %eax
   1159d:	0f 20 c0             	mov    %cr0,%eax
   115a0:	50                   	push   %eax
   115a1:	e8 33 2f 00 00       	call   144d9 <common_trap_handler>
   115a6:	83 c4 10             	add    $0x10,%esp
   115a9:	61                   	popa   
   115aa:	83 c4 0c             	add    $0xc,%esp
   115ad:	83 c4 08             	add    $0x8,%esp
   115b0:	cf                   	iret   
   115b1:	90                   	nop
   115b2:	90                   	nop
   115b3:	90                   	nop

000115b4 <kTrap5>:
   115b4:	6a 00                	push   $0x0
   115b6:	6a 05                	push   $0x5
   115b8:	ff 74 24 10          	push   0x10(%esp)
   115bc:	ff 74 24 10          	push   0x10(%esp)
   115c0:	ff 74 24 10          	push   0x10(%esp)
   115c4:	60                   	pusha  
   115c5:	0f 20 e0             	mov    %cr4,%eax
   115c8:	50                   	push   %eax
   115c9:	0f 20 d8             	mov    %cr3,%eax
   115cc:	50                   	push   %eax
   115cd:	0f 20 d0             	mov    %cr2,%eax
   115d0:	50                   	push   %eax
   115d1:	0f 20 c0             	mov    %cr0,%eax
   115d4:	50                   	push   %eax
   115d5:	e8 ff 2e 00 00       	call   144d9 <common_trap_handler>
   115da:	83 c4 10             	add    $0x10,%esp
   115dd:	61                   	popa   
   115de:	83 c4 0c             	add    $0xc,%esp
   115e1:	83 c4 08             	add    $0x8,%esp
   115e4:	cf                   	iret   
   115e5:	90                   	nop
   115e6:	90                   	nop
   115e7:	90                   	nop

000115e8 <kTrap6>:
   115e8:	6a 00                	push   $0x0
   115ea:	6a 06                	push   $0x6
   115ec:	ff 74 24 10          	push   0x10(%esp)
   115f0:	ff 74 24 10          	push   0x10(%esp)
   115f4:	ff 74 24 10          	push   0x10(%esp)
   115f8:	60                   	pusha  
   115f9:	0f 20 e0             	mov    %cr4,%eax
   115fc:	50                   	push   %eax
   115fd:	0f 20 d8             	mov    %cr3,%eax
   11600:	50                   	push   %eax
   11601:	0f 20 d0             	mov    %cr2,%eax
   11604:	50                   	push   %eax
   11605:	0f 20 c0             	mov    %cr0,%eax
   11608:	50                   	push   %eax
   11609:	e8 cb 2e 00 00       	call   144d9 <common_trap_handler>
   1160e:	83 c4 10             	add    $0x10,%esp
   11611:	61                   	popa   
   11612:	83 c4 0c             	add    $0xc,%esp
   11615:	83 c4 08             	add    $0x8,%esp
   11618:	cf                   	iret   
   11619:	90                   	nop
   1161a:	90                   	nop
   1161b:	90                   	nop

0001161c <kTrap7>:
   1161c:	6a 00                	push   $0x0
   1161e:	6a 07                	push   $0x7
   11620:	ff 74 24 10          	push   0x10(%esp)
   11624:	ff 74 24 10          	push   0x10(%esp)
   11628:	ff 74 24 10          	push   0x10(%esp)
   1162c:	60                   	pusha  
   1162d:	0f 20 e0             	mov    %cr4,%eax
   11630:	50                   	push   %eax
   11631:	0f 20 d8             	mov    %cr3,%eax
   11634:	50                   	push   %eax
   11635:	0f 20 d0             	mov    %cr2,%eax
   11638:	50                   	push   %eax
   11639:	0f 20 c0             	mov    %cr0,%eax
   1163c:	50                   	push   %eax
   1163d:	e8 97 2e 00 00       	call   144d9 <common_trap_handler>
   11642:	83 c4 10             	add    $0x10,%esp
   11645:	61                   	popa   
   11646:	83 c4 0c             	add    $0xc,%esp
   11649:	83 c4 08             	add    $0x8,%esp
   1164c:	cf                   	iret   
   1164d:	90                   	nop
   1164e:	90                   	nop
   1164f:	90                   	nop

00011650 <kTrap8>:
   11650:	6a 08                	push   $0x8
   11652:	ff 74 24 10          	push   0x10(%esp)
   11656:	ff 74 24 10          	push   0x10(%esp)
   1165a:	ff 74 24 10          	push   0x10(%esp)
   1165e:	60                   	pusha  
   1165f:	0f 20 e0             	mov    %cr4,%eax
   11662:	50                   	push   %eax
   11663:	0f 20 d8             	mov    %cr3,%eax
   11666:	50                   	push   %eax
   11667:	0f 20 d0             	mov    %cr2,%eax
   1166a:	50                   	push   %eax
   1166b:	0f 20 c0             	mov    %cr0,%eax
   1166e:	50                   	push   %eax
   1166f:	e8 65 2e 00 00       	call   144d9 <common_trap_handler>
   11674:	83 c4 10             	add    $0x10,%esp
   11677:	61                   	popa   
   11678:	83 c4 0c             	add    $0xc,%esp
   1167b:	83 c4 08             	add    $0x8,%esp
   1167e:	cf                   	iret   
   1167f:	90                   	nop

00011680 <kTrap9>:
   11680:	6a 00                	push   $0x0
   11682:	6a 09                	push   $0x9
   11684:	ff 74 24 10          	push   0x10(%esp)
   11688:	ff 74 24 10          	push   0x10(%esp)
   1168c:	ff 74 24 10          	push   0x10(%esp)
   11690:	60                   	pusha  
   11691:	0f 20 e0             	mov    %cr4,%eax
   11694:	50                   	push   %eax
   11695:	0f 20 d8             	mov    %cr3,%eax
   11698:	50                   	push   %eax
   11699:	0f 20 d0             	mov    %cr2,%eax
   1169c:	50                   	push   %eax
   1169d:	0f 20 c0             	mov    %cr0,%eax
   116a0:	50                   	push   %eax
   116a1:	e8 33 2e 00 00       	call   144d9 <common_trap_handler>
   116a6:	83 c4 10             	add    $0x10,%esp
   116a9:	61                   	popa   
   116aa:	83 c4 0c             	add    $0xc,%esp
   116ad:	83 c4 08             	add    $0x8,%esp
   116b0:	cf                   	iret   
   116b1:	90                   	nop
   116b2:	90                   	nop
   116b3:	90                   	nop

000116b4 <kTrap10>:
   116b4:	6a 0a                	push   $0xa
   116b6:	ff 74 24 10          	push   0x10(%esp)
   116ba:	ff 74 24 10          	push   0x10(%esp)
   116be:	ff 74 24 10          	push   0x10(%esp)
   116c2:	60                   	pusha  
   116c3:	0f 20 e0             	mov    %cr4,%eax
   116c6:	50                   	push   %eax
   116c7:	0f 20 d8             	mov    %cr3,%eax
   116ca:	50                   	push   %eax
   116cb:	0f 20 d0             	mov    %cr2,%eax
   116ce:	50                   	push   %eax
   116cf:	0f 20 c0             	mov    %cr0,%eax
   116d2:	50                   	push   %eax
   116d3:	e8 01 2e 00 00       	call   144d9 <common_trap_handler>
   116d8:	83 c4 10             	add    $0x10,%esp
   116db:	61                   	popa   
   116dc:	83 c4 0c             	add    $0xc,%esp
   116df:	83 c4 08             	add    $0x8,%esp
   116e2:	cf                   	iret   
   116e3:	90                   	nop

000116e4 <kTrap11>:
   116e4:	6a 0b                	push   $0xb
   116e6:	ff 74 24 10          	push   0x10(%esp)
   116ea:	ff 74 24 10          	push   0x10(%esp)
   116ee:	ff 74 24 10          	push   0x10(%esp)
   116f2:	60                   	pusha  
   116f3:	0f 20 e0             	mov    %cr4,%eax
   116f6:	50                   	push   %eax
   116f7:	0f 20 d8             	mov    %cr3,%eax
   116fa:	50                   	push   %eax
   116fb:	0f 20 d0             	mov    %cr2,%eax
   116fe:	50                   	push   %eax
   116ff:	0f 20 c0             	mov    %cr0,%eax
   11702:	50                   	push   %eax
   11703:	e8 d1 2d 00 00       	call   144d9 <common_trap_handler>
   11708:	83 c4 10             	add    $0x10,%esp
   1170b:	61                   	popa   
   1170c:	83 c4 0c             	add    $0xc,%esp
   1170f:	83 c4 08             	add    $0x8,%esp
   11712:	cf                   	iret   
   11713:	90                   	nop

00011714 <kTrap12>:
   11714:	6a 0c                	push   $0xc
   11716:	ff 74 24 10          	push   0x10(%esp)
   1171a:	ff 74 24 10          	push   0x10(%esp)
   1171e:	ff 74 24 10          	push   0x10(%esp)
   11722:	60                   	pusha  
   11723:	0f 20 e0             	mov    %cr4,%eax
   11726:	50                   	push   %eax
   11727:	0f 20 d8             	mov    %cr3,%eax
   1172a:	50                   	push   %eax
   1172b:	0f 20 d0             	mov    %cr2,%eax
   1172e:	50                   	push   %eax
   1172f:	0f 20 c0             	mov    %cr0,%eax
   11732:	50                   	push   %eax
   11733:	e8 a1 2d 00 00       	call   144d9 <common_trap_handler>
   11738:	83 c4 10             	add    $0x10,%esp
   1173b:	61                   	popa   
   1173c:	83 c4 0c             	add    $0xc,%esp
   1173f:	83 c4 08             	add    $0x8,%esp
   11742:	cf                   	iret   
   11743:	90                   	nop

00011744 <kTrap13>:
   11744:	6a 0d                	push   $0xd
   11746:	ff 74 24 10          	push   0x10(%esp)
   1174a:	ff 74 24 10          	push   0x10(%esp)
   1174e:	ff 74 24 10          	push   0x10(%esp)
   11752:	60                   	pusha  
   11753:	0f 20 e0             	mov    %cr4,%eax
   11756:	50                   	push   %eax
   11757:	0f 20 d8             	mov    %cr3,%eax
   1175a:	50                   	push   %eax
   1175b:	0f 20 d0             	mov    %cr2,%eax
   1175e:	50                   	push   %eax
   1175f:	0f 20 c0             	mov    %cr0,%eax
   11762:	50                   	push   %eax
   11763:	e8 71 2d 00 00       	call   144d9 <common_trap_handler>
   11768:	83 c4 10             	add    $0x10,%esp
   1176b:	61                   	popa   
   1176c:	83 c4 0c             	add    $0xc,%esp
   1176f:	83 c4 08             	add    $0x8,%esp
   11772:	cf                   	iret   
   11773:	90                   	nop

00011774 <kTrap14>:
   11774:	6a 0e                	push   $0xe
   11776:	ff 74 24 10          	push   0x10(%esp)
   1177a:	ff 74 24 10          	push   0x10(%esp)
   1177e:	ff 74 24 10          	push   0x10(%esp)
   11782:	60                   	pusha  
   11783:	0f 20 e0             	mov    %cr4,%eax
   11786:	50                   	push   %eax
   11787:	0f 20 d8             	mov    %cr3,%eax
   1178a:	50                   	push   %eax
   1178b:	0f 20 d0             	mov    %cr2,%eax
   1178e:	50                   	push   %eax
   1178f:	0f 20 c0             	mov    %cr0,%eax
   11792:	50                   	push   %eax
   11793:	e8 41 2d 00 00       	call   144d9 <common_trap_handler>
   11798:	83 c4 10             	add    $0x10,%esp
   1179b:	61                   	popa   
   1179c:	83 c4 0c             	add    $0xc,%esp
   1179f:	83 c4 08             	add    $0x8,%esp
   117a2:	cf                   	iret   
   117a3:	90                   	nop

000117a4 <kTrap16>:
   117a4:	6a 00                	push   $0x0
   117a6:	6a 10                	push   $0x10
   117a8:	ff 74 24 10          	push   0x10(%esp)
   117ac:	ff 74 24 10          	push   0x10(%esp)
   117b0:	ff 74 24 10          	push   0x10(%esp)
   117b4:	60                   	pusha  
   117b5:	0f 20 e0             	mov    %cr4,%eax
   117b8:	50                   	push   %eax
   117b9:	0f 20 d8             	mov    %cr3,%eax
   117bc:	50                   	push   %eax
   117bd:	0f 20 d0             	mov    %cr2,%eax
   117c0:	50                   	push   %eax
   117c1:	0f 20 c0             	mov    %cr0,%eax
   117c4:	50                   	push   %eax
   117c5:	e8 0f 2d 00 00       	call   144d9 <common_trap_handler>
   117ca:	83 c4 10             	add    $0x10,%esp
   117cd:	61                   	popa   
   117ce:	83 c4 0c             	add    $0xc,%esp
   117d1:	83 c4 08             	add    $0x8,%esp
   117d4:	cf                   	iret   
   117d5:	90                   	nop
   117d6:	90                   	nop
   117d7:	90                   	nop

000117d8 <kTrap17>:
   117d8:	6a 11                	push   $0x11
   117da:	ff 74 24 10          	push   0x10(%esp)
   117de:	ff 74 24 10          	push   0x10(%esp)
   117e2:	ff 74 24 10          	push   0x10(%esp)
   117e6:	60                   	pusha  
   117e7:	0f 20 e0             	mov    %cr4,%eax
   117ea:	50                   	push   %eax
   117eb:	0f 20 d8             	mov    %cr3,%eax
   117ee:	50                   	push   %eax
   117ef:	0f 20 d0             	mov    %cr2,%eax
   117f2:	50                   	push   %eax
   117f3:	0f 20 c0             	mov    %cr0,%eax
   117f6:	50                   	push   %eax
   117f7:	e8 dd 2c 00 00       	call   144d9 <common_trap_handler>
   117fc:	83 c4 10             	add    $0x10,%esp
   117ff:	61                   	popa   
   11800:	83 c4 0c             	add    $0xc,%esp
   11803:	83 c4 08             	add    $0x8,%esp
   11806:	cf                   	iret   
   11807:	90                   	nop

00011808 <kTrap18>:
   11808:	6a 00                	push   $0x0
   1180a:	6a 12                	push   $0x12
   1180c:	ff 74 24 10          	push   0x10(%esp)
   11810:	ff 74 24 10          	push   0x10(%esp)
   11814:	ff 74 24 10          	push   0x10(%esp)
   11818:	60                   	pusha  
   11819:	0f 20 e0             	mov    %cr4,%eax
   1181c:	50                   	push   %eax
   1181d:	0f 20 d8             	mov    %cr3,%eax
   11820:	50                   	push   %eax
   11821:	0f 20 d0             	mov    %cr2,%eax
   11824:	50                   	push   %eax
   11825:	0f 20 c0             	mov    %cr0,%eax
   11828:	50                   	push   %eax
   11829:	e8 ab 2c 00 00       	call   144d9 <common_trap_handler>
   1182e:	83 c4 10             	add    $0x10,%esp
   11831:	61                   	popa   
   11832:	83 c4 0c             	add    $0xc,%esp
   11835:	83 c4 08             	add    $0x8,%esp
   11838:	cf                   	iret   
   11839:	90                   	nop
   1183a:	90                   	nop
   1183b:	90                   	nop

0001183c <kTrap19>:
   1183c:	6a 00                	push   $0x0
   1183e:	6a 13                	push   $0x13
   11840:	ff 74 24 10          	push   0x10(%esp)
   11844:	ff 74 24 10          	push   0x10(%esp)
   11848:	ff 74 24 10          	push   0x10(%esp)
   1184c:	60                   	pusha  
   1184d:	0f 20 e0             	mov    %cr4,%eax
   11850:	50                   	push   %eax
   11851:	0f 20 d8             	mov    %cr3,%eax
   11854:	50                   	push   %eax
   11855:	0f 20 d0             	mov    %cr2,%eax
   11858:	50                   	push   %eax
   11859:	0f 20 c0             	mov    %cr0,%eax
   1185c:	50                   	push   %eax
   1185d:	e8 77 2c 00 00       	call   144d9 <common_trap_handler>
   11862:	83 c4 10             	add    $0x10,%esp
   11865:	61                   	popa   
   11866:	83 c4 0c             	add    $0xc,%esp
   11869:	83 c4 08             	add    $0x8,%esp
   1186c:	cf                   	iret   
   1186d:	90                   	nop
   1186e:	90                   	nop
   1186f:	90                   	nop

00011870 <kTrap20>:
   11870:	6a 00                	push   $0x0
   11872:	6a 14                	push   $0x14
   11874:	ff 74 24 10          	push   0x10(%esp)
   11878:	ff 74 24 10          	push   0x10(%esp)
   1187c:	ff 74 24 10          	push   0x10(%esp)
   11880:	60                   	pusha  
   11881:	0f 20 e0             	mov    %cr4,%eax
   11884:	50                   	push   %eax
   11885:	0f 20 d8             	mov    %cr3,%eax
   11888:	50                   	push   %eax
   11889:	0f 20 d0             	mov    %cr2,%eax
   1188c:	50                   	push   %eax
   1188d:	0f 20 c0             	mov    %cr0,%eax
   11890:	50                   	push   %eax
   11891:	e8 43 2c 00 00       	call   144d9 <common_trap_handler>
   11896:	83 c4 10             	add    $0x10,%esp
   11899:	61                   	popa   
   1189a:	83 c4 0c             	add    $0xc,%esp
   1189d:	83 c4 08             	add    $0x8,%esp
   118a0:	cf                   	iret   
   118a1:	90                   	nop
   118a2:	90                   	nop
   118a3:	90                   	nop

000118a4 <kTrap32>:
   118a4:	6a 00                	push   $0x0
   118a6:	6a 20                	push   $0x20
   118a8:	ff 74 24 10          	push   0x10(%esp)
   118ac:	ff 74 24 10          	push   0x10(%esp)
   118b0:	ff 74 24 10          	push   0x10(%esp)
   118b4:	60                   	pusha  
   118b5:	0f 20 e0             	mov    %cr4,%eax
   118b8:	50                   	push   %eax
   118b9:	0f 20 d8             	mov    %cr3,%eax
   118bc:	50                   	push   %eax
   118bd:	0f 20 d0             	mov    %cr2,%eax
   118c0:	50                   	push   %eax
   118c1:	0f 20 c0             	mov    %cr0,%eax
   118c4:	50                   	push   %eax
   118c5:	e8 0f 2c 00 00       	call   144d9 <common_trap_handler>
   118ca:	83 c4 10             	add    $0x10,%esp
   118cd:	61                   	popa   
   118ce:	83 c4 0c             	add    $0xc,%esp
   118d1:	83 c4 08             	add    $0x8,%esp
   118d4:	cf                   	iret   
   118d5:	90                   	nop
   118d6:	90                   	nop
   118d7:	90                   	nop

000118d8 <kTrap33>:
   118d8:	6a 00                	push   $0x0
   118da:	6a 21                	push   $0x21
   118dc:	ff 74 24 10          	push   0x10(%esp)
   118e0:	ff 74 24 10          	push   0x10(%esp)
   118e4:	ff 74 24 10          	push   0x10(%esp)
   118e8:	60                   	pusha  
   118e9:	0f 20 e0             	mov    %cr4,%eax
   118ec:	50                   	push   %eax
   118ed:	0f 20 d8             	mov    %cr3,%eax
   118f0:	50                   	push   %eax
   118f1:	0f 20 d0             	mov    %cr2,%eax
   118f4:	50                   	push   %eax
   118f5:	0f 20 c0             	mov    %cr0,%eax
   118f8:	50                   	push   %eax
   118f9:	e8 db 2b 00 00       	call   144d9 <common_trap_handler>
   118fe:	83 c4 10             	add    $0x10,%esp
   11901:	61                   	popa   
   11902:	83 c4 0c             	add    $0xc,%esp
   11905:	83 c4 08             	add    $0x8,%esp
   11908:	cf                   	iret   
   11909:	90                   	nop
   1190a:	90                   	nop
   1190b:	90                   	nop

0001190c <kTrap35>:
   1190c:	6a 00                	push   $0x0
   1190e:	6a 23                	push   $0x23
   11910:	ff 74 24 10          	push   0x10(%esp)
   11914:	ff 74 24 10          	push   0x10(%esp)
   11918:	ff 74 24 10          	push   0x10(%esp)
   1191c:	60                   	pusha  
   1191d:	0f 20 e0             	mov    %cr4,%eax
   11920:	50                   	push   %eax
   11921:	0f 20 d8             	mov    %cr3,%eax
   11924:	50                   	push   %eax
   11925:	0f 20 d0             	mov    %cr2,%eax
   11928:	50                   	push   %eax
   11929:	0f 20 c0             	mov    %cr0,%eax
   1192c:	50                   	push   %eax
   1192d:	e8 a7 2b 00 00       	call   144d9 <common_trap_handler>
   11932:	83 c4 10             	add    $0x10,%esp
   11935:	61                   	popa   
   11936:	83 c4 0c             	add    $0xc,%esp
   11939:	83 c4 08             	add    $0x8,%esp
   1193c:	cf                   	iret   
   1193d:	90                   	nop
   1193e:	90                   	nop
   1193f:	90                   	nop

00011940 <kTrap36>:
   11940:	6a 00                	push   $0x0
   11942:	6a 24                	push   $0x24
   11944:	ff 74 24 10          	push   0x10(%esp)
   11948:	ff 74 24 10          	push   0x10(%esp)
   1194c:	ff 74 24 10          	push   0x10(%esp)
   11950:	60                   	pusha  
   11951:	0f 20 e0             	mov    %cr4,%eax
   11954:	50                   	push   %eax
   11955:	0f 20 d8             	mov    %cr3,%eax
   11958:	50                   	push   %eax
   11959:	0f 20 d0             	mov    %cr2,%eax
   1195c:	50                   	push   %eax
   1195d:	0f 20 c0             	mov    %cr0,%eax
   11960:	50                   	push   %eax
   11961:	e8 73 2b 00 00       	call   144d9 <common_trap_handler>
   11966:	83 c4 10             	add    $0x10,%esp
   11969:	61                   	popa   
   1196a:	83 c4 0c             	add    $0xc,%esp
   1196d:	83 c4 08             	add    $0x8,%esp
   11970:	cf                   	iret   
   11971:	90                   	nop
   11972:	90                   	nop
   11973:	90                   	nop

00011974 <kTrap37>:
   11974:	6a 00                	push   $0x0
   11976:	6a 25                	push   $0x25
   11978:	ff 74 24 10          	push   0x10(%esp)
   1197c:	ff 74 24 10          	push   0x10(%esp)
   11980:	ff 74 24 10          	push   0x10(%esp)
   11984:	60                   	pusha  
   11985:	0f 20 e0             	mov    %cr4,%eax
   11988:	50                   	push   %eax
   11989:	0f 20 d8             	mov    %cr3,%eax
   1198c:	50                   	push   %eax
   1198d:	0f 20 d0             	mov    %cr2,%eax
   11990:	50                   	push   %eax
   11991:	0f 20 c0             	mov    %cr0,%eax
   11994:	50                   	push   %eax
   11995:	e8 3f 2b 00 00       	call   144d9 <common_trap_handler>
   1199a:	83 c4 10             	add    $0x10,%esp
   1199d:	61                   	popa   
   1199e:	83 c4 0c             	add    $0xc,%esp
   119a1:	83 c4 08             	add    $0x8,%esp
   119a4:	cf                   	iret   
   119a5:	90                   	nop
   119a6:	90                   	nop
   119a7:	90                   	nop

000119a8 <kTrap38>:
   119a8:	6a 00                	push   $0x0
   119aa:	6a 26                	push   $0x26
   119ac:	ff 74 24 10          	push   0x10(%esp)
   119b0:	ff 74 24 10          	push   0x10(%esp)
   119b4:	ff 74 24 10          	push   0x10(%esp)
   119b8:	60                   	pusha  
   119b9:	0f 20 e0             	mov    %cr4,%eax
   119bc:	50                   	push   %eax
   119bd:	0f 20 d8             	mov    %cr3,%eax
   119c0:	50                   	push   %eax
   119c1:	0f 20 d0             	mov    %cr2,%eax
   119c4:	50                   	push   %eax
   119c5:	0f 20 c0             	mov    %cr0,%eax
   119c8:	50                   	push   %eax
   119c9:	e8 0b 2b 00 00       	call   144d9 <common_trap_handler>
   119ce:	83 c4 10             	add    $0x10,%esp
   119d1:	61                   	popa   
   119d2:	83 c4 0c             	add    $0xc,%esp
   119d5:	83 c4 08             	add    $0x8,%esp
   119d8:	cf                   	iret   
   119d9:	90                   	nop
   119da:	90                   	nop
   119db:	90                   	nop

000119dc <kTrap39>:
   119dc:	6a 00                	push   $0x0
   119de:	6a 27                	push   $0x27
   119e0:	ff 74 24 10          	push   0x10(%esp)
   119e4:	ff 74 24 10          	push   0x10(%esp)
   119e8:	ff 74 24 10          	push   0x10(%esp)
   119ec:	60                   	pusha  
   119ed:	0f 20 e0             	mov    %cr4,%eax
   119f0:	50                   	push   %eax
   119f1:	0f 20 d8             	mov    %cr3,%eax
   119f4:	50                   	push   %eax
   119f5:	0f 20 d0             	mov    %cr2,%eax
   119f8:	50                   	push   %eax
   119f9:	0f 20 c0             	mov    %cr0,%eax
   119fc:	50                   	push   %eax
   119fd:	e8 d7 2a 00 00       	call   144d9 <common_trap_handler>
   11a02:	83 c4 10             	add    $0x10,%esp
   11a05:	61                   	popa   
   11a06:	83 c4 0c             	add    $0xc,%esp
   11a09:	83 c4 08             	add    $0x8,%esp
   11a0c:	cf                   	iret   
   11a0d:	90                   	nop
   11a0e:	90                   	nop
   11a0f:	90                   	nop

00011a10 <kTrap40>:
   11a10:	6a 00                	push   $0x0
   11a12:	6a 28                	push   $0x28
   11a14:	ff 74 24 10          	push   0x10(%esp)
   11a18:	ff 74 24 10          	push   0x10(%esp)
   11a1c:	ff 74 24 10          	push   0x10(%esp)
   11a20:	60                   	pusha  
   11a21:	0f 20 e0             	mov    %cr4,%eax
   11a24:	50                   	push   %eax
   11a25:	0f 20 d8             	mov    %cr3,%eax
   11a28:	50                   	push   %eax
   11a29:	0f 20 d0             	mov    %cr2,%eax
   11a2c:	50                   	push   %eax
   11a2d:	0f 20 c0             	mov    %cr0,%eax
   11a30:	50                   	push   %eax
   11a31:	e8 a3 2a 00 00       	call   144d9 <common_trap_handler>
   11a36:	83 c4 10             	add    $0x10,%esp
   11a39:	61                   	popa   
   11a3a:	83 c4 0c             	add    $0xc,%esp
   11a3d:	83 c4 08             	add    $0x8,%esp
   11a40:	cf                   	iret   
   11a41:	90                   	nop
   11a42:	90                   	nop
   11a43:	90                   	nop

00011a44 <kTrap41>:
   11a44:	6a 00                	push   $0x0
   11a46:	6a 29                	push   $0x29
   11a48:	ff 74 24 10          	push   0x10(%esp)
   11a4c:	ff 74 24 10          	push   0x10(%esp)
   11a50:	ff 74 24 10          	push   0x10(%esp)
   11a54:	60                   	pusha  
   11a55:	0f 20 e0             	mov    %cr4,%eax
   11a58:	50                   	push   %eax
   11a59:	0f 20 d8             	mov    %cr3,%eax
   11a5c:	50                   	push   %eax
   11a5d:	0f 20 d0             	mov    %cr2,%eax
   11a60:	50                   	push   %eax
   11a61:	0f 20 c0             	mov    %cr0,%eax
   11a64:	50                   	push   %eax
   11a65:	e8 6f 2a 00 00       	call   144d9 <common_trap_handler>
   11a6a:	83 c4 10             	add    $0x10,%esp
   11a6d:	61                   	popa   
   11a6e:	83 c4 0c             	add    $0xc,%esp
   11a71:	83 c4 08             	add    $0x8,%esp
   11a74:	cf                   	iret   
   11a75:	90                   	nop
   11a76:	90                   	nop
   11a77:	90                   	nop

00011a78 <kTrap42>:
   11a78:	6a 00                	push   $0x0
   11a7a:	6a 2a                	push   $0x2a
   11a7c:	ff 74 24 10          	push   0x10(%esp)
   11a80:	ff 74 24 10          	push   0x10(%esp)
   11a84:	ff 74 24 10          	push   0x10(%esp)
   11a88:	60                   	pusha  
   11a89:	0f 20 e0             	mov    %cr4,%eax
   11a8c:	50                   	push   %eax
   11a8d:	0f 20 d8             	mov    %cr3,%eax
   11a90:	50                   	push   %eax
   11a91:	0f 20 d0             	mov    %cr2,%eax
   11a94:	50                   	push   %eax
   11a95:	0f 20 c0             	mov    %cr0,%eax
   11a98:	50                   	push   %eax
   11a99:	e8 3b 2a 00 00       	call   144d9 <common_trap_handler>
   11a9e:	83 c4 10             	add    $0x10,%esp
   11aa1:	61                   	popa   
   11aa2:	83 c4 0c             	add    $0xc,%esp
   11aa5:	83 c4 08             	add    $0x8,%esp
   11aa8:	cf                   	iret   
   11aa9:	90                   	nop
   11aaa:	90                   	nop
   11aab:	90                   	nop

00011aac <kTrap43>:
   11aac:	6a 00                	push   $0x0
   11aae:	6a 2b                	push   $0x2b
   11ab0:	ff 74 24 10          	push   0x10(%esp)
   11ab4:	ff 74 24 10          	push   0x10(%esp)
   11ab8:	ff 74 24 10          	push   0x10(%esp)
   11abc:	60                   	pusha  
   11abd:	0f 20 e0             	mov    %cr4,%eax
   11ac0:	50                   	push   %eax
   11ac1:	0f 20 d8             	mov    %cr3,%eax
   11ac4:	50                   	push   %eax
   11ac5:	0f 20 d0             	mov    %cr2,%eax
   11ac8:	50                   	push   %eax
   11ac9:	0f 20 c0             	mov    %cr0,%eax
   11acc:	50                   	push   %eax
   11acd:	e8 07 2a 00 00       	call   144d9 <common_trap_handler>
   11ad2:	83 c4 10             	add    $0x10,%esp
   11ad5:	61                   	popa   
   11ad6:	83 c4 0c             	add    $0xc,%esp
   11ad9:	83 c4 08             	add    $0x8,%esp
   11adc:	cf                   	iret   
   11add:	90                   	nop
   11ade:	90                   	nop
   11adf:	90                   	nop

00011ae0 <kTrap44>:
   11ae0:	6a 00                	push   $0x0
   11ae2:	6a 2c                	push   $0x2c
   11ae4:	ff 74 24 10          	push   0x10(%esp)
   11ae8:	ff 74 24 10          	push   0x10(%esp)
   11aec:	ff 74 24 10          	push   0x10(%esp)
   11af0:	60                   	pusha  
   11af1:	0f 20 e0             	mov    %cr4,%eax
   11af4:	50                   	push   %eax
   11af5:	0f 20 d8             	mov    %cr3,%eax
   11af8:	50                   	push   %eax
   11af9:	0f 20 d0             	mov    %cr2,%eax
   11afc:	50                   	push   %eax
   11afd:	0f 20 c0             	mov    %cr0,%eax
   11b00:	50                   	push   %eax
   11b01:	e8 d3 29 00 00       	call   144d9 <common_trap_handler>
   11b06:	83 c4 10             	add    $0x10,%esp
   11b09:	61                   	popa   
   11b0a:	83 c4 0c             	add    $0xc,%esp
   11b0d:	83 c4 08             	add    $0x8,%esp
   11b10:	cf                   	iret   
   11b11:	90                   	nop
   11b12:	90                   	nop
   11b13:	90                   	nop

00011b14 <kTrap45>:
   11b14:	6a 00                	push   $0x0
   11b16:	6a 2d                	push   $0x2d
   11b18:	ff 74 24 10          	push   0x10(%esp)
   11b1c:	ff 74 24 10          	push   0x10(%esp)
   11b20:	ff 74 24 10          	push   0x10(%esp)
   11b24:	60                   	pusha  
   11b25:	0f 20 e0             	mov    %cr4,%eax
   11b28:	50                   	push   %eax
   11b29:	0f 20 d8             	mov    %cr3,%eax
   11b2c:	50                   	push   %eax
   11b2d:	0f 20 d0             	mov    %cr2,%eax
   11b30:	50                   	push   %eax
   11b31:	0f 20 c0             	mov    %cr0,%eax
   11b34:	50                   	push   %eax
   11b35:	e8 9f 29 00 00       	call   144d9 <common_trap_handler>
   11b3a:	83 c4 10             	add    $0x10,%esp
   11b3d:	61                   	popa   
   11b3e:	83 c4 0c             	add    $0xc,%esp
   11b41:	83 c4 08             	add    $0x8,%esp
   11b44:	cf                   	iret   
   11b45:	90                   	nop
   11b46:	90                   	nop
   11b47:	90                   	nop

00011b48 <kTrap46>:
   11b48:	6a 00                	push   $0x0
   11b4a:	6a 2e                	push   $0x2e
   11b4c:	ff 74 24 10          	push   0x10(%esp)
   11b50:	ff 74 24 10          	push   0x10(%esp)
   11b54:	ff 74 24 10          	push   0x10(%esp)
   11b58:	60                   	pusha  
   11b59:	0f 20 e0             	mov    %cr4,%eax
   11b5c:	50                   	push   %eax
   11b5d:	0f 20 d8             	mov    %cr3,%eax
   11b60:	50                   	push   %eax
   11b61:	0f 20 d0             	mov    %cr2,%eax
   11b64:	50                   	push   %eax
   11b65:	0f 20 c0             	mov    %cr0,%eax
   11b68:	50                   	push   %eax
   11b69:	e8 6b 29 00 00       	call   144d9 <common_trap_handler>
   11b6e:	83 c4 10             	add    $0x10,%esp
   11b71:	61                   	popa   
   11b72:	83 c4 0c             	add    $0xc,%esp
   11b75:	83 c4 08             	add    $0x8,%esp
   11b78:	cf                   	iret   
   11b79:	90                   	nop
   11b7a:	90                   	nop
   11b7b:	90                   	nop

00011b7c <kTrap47>:
   11b7c:	6a 00                	push   $0x0
   11b7e:	6a 2f                	push   $0x2f
   11b80:	ff 74 24 10          	push   0x10(%esp)
   11b84:	ff 74 24 10          	push   0x10(%esp)
   11b88:	ff 74 24 10          	push   0x10(%esp)
   11b8c:	60                   	pusha  
   11b8d:	0f 20 e0             	mov    %cr4,%eax
   11b90:	50                   	push   %eax
   11b91:	0f 20 d8             	mov    %cr3,%eax
   11b94:	50                   	push   %eax
   11b95:	0f 20 d0             	mov    %cr2,%eax
   11b98:	50                   	push   %eax
   11b99:	0f 20 c0             	mov    %cr0,%eax
   11b9c:	50                   	push   %eax
   11b9d:	e8 37 29 00 00       	call   144d9 <common_trap_handler>
   11ba2:	83 c4 10             	add    $0x10,%esp
   11ba5:	61                   	popa   
   11ba6:	83 c4 0c             	add    $0xc,%esp
   11ba9:	83 c4 08             	add    $0x8,%esp
   11bac:	cf                   	iret   
   11bad:	90                   	nop
   11bae:	90                   	nop
   11baf:	90                   	nop

00011bb0 <kTrapReserved>:
   11bb0:	6a 00                	push   $0x0
   11bb2:	6a 0f                	push   $0xf
   11bb4:	ff 74 24 10          	push   0x10(%esp)
   11bb8:	ff 74 24 10          	push   0x10(%esp)
   11bbc:	ff 74 24 10          	push   0x10(%esp)
   11bc0:	60                   	pusha  
   11bc1:	0f 20 e0             	mov    %cr4,%eax
   11bc4:	50                   	push   %eax
   11bc5:	0f 20 d8             	mov    %cr3,%eax
   11bc8:	50                   	push   %eax
   11bc9:	0f 20 d0             	mov    %cr2,%eax
   11bcc:	50                   	push   %eax
   11bcd:	0f 20 c0             	mov    %cr0,%eax
   11bd0:	50                   	push   %eax
   11bd1:	e8 03 29 00 00       	call   144d9 <common_trap_handler>
   11bd6:	83 c4 10             	add    $0x10,%esp
   11bd9:	61                   	popa   
   11bda:	83 c4 0c             	add    $0xc,%esp
   11bdd:	83 c4 08             	add    $0x8,%esp
   11be0:	cf                   	iret   

00011be1 <ps2_write>:
        ps2_write(PS2_CMD_ENABLE_1, true, true);
    }
}

bool ps2_write(u8 data, bool cmd, bool wait_infinite)
{
   11be1:	55                   	push   %ebp
   11be2:	89 e5                	mov    %esp,%ebp
   11be4:	57                   	push   %edi
   11be5:	56                   	push   %esi
   11be6:	53                   	push   %ebx
   11be7:	83 ec 1c             	sub    $0x1c,%esp
   11bea:	8b 7d 08             	mov    0x8(%ebp),%edi
   11bed:	8a 5d 10             	mov    0x10(%ebp),%bl
    u16 port = cmd ? PS2_PORT_CMD : PS2_PORT_DATA;
   11bf0:	ba 64 00 00 00       	mov    $0x64,%edx
   11bf5:	80 7d 0c 00          	cmpb   $0x0,0xc(%ebp)
   11bf9:	75 05                	jne    11c00 <ps2_write+0x1f>
   11bfb:	ba 60 00 00 00       	mov    $0x60,%edx
    while (port_read_byte(PS2_PORT_STATUS) & PS2_STATUS_IN_FULL && times--)
   11c00:	be 33 00 00 00       	mov    $0x33,%esi
}

inline static u8 port_read_byte(u16 port)
{
    u8 data;
    __asm__ volatile("inb %1, %0"
   11c05:	e4 64                	in     $0x64,%al
   11c07:	a8 02                	test   $0x2,%al
   11c09:	74 18                	je     11c23 <ps2_write+0x42>
   11c0b:	4e                   	dec    %esi
   11c0c:	74 15                	je     11c23 <ps2_write+0x42>
   11c0e:	89 55 e4             	mov    %edx,-0x1c(%ebp)
        delay_ms(10);
   11c11:	83 ec 0c             	sub    $0xc,%esp
   11c14:	6a 0a                	push   $0xa
   11c16:	e8 7a 32 00 00       	call   14e95 <delay_ms>
   11c1b:	83 c4 10             	add    $0x10,%esp
   11c1e:	8b 55 e4             	mov    -0x1c(%ebp),%edx
   11c21:	eb e2                	jmp    11c05 <ps2_write+0x24>
   11c23:	e4 64                	in     $0x64,%al
    bool ret;
    do
    {
        ret = wait_for_write();
    } while (!ret && wait_infinite);
   11c25:	a8 02                	test   $0x2,%al
   11c27:	74 06                	je     11c2f <ps2_write+0x4e>
   11c29:	84 db                	test   %bl,%bl
   11c2b:	75 d3                	jne    11c00 <ps2_write+0x1f>
   11c2d:	eb 05                	jmp    11c34 <ps2_write+0x53>
    __asm__ volatile("outb %0, %1"
   11c2f:	89 f8                	mov    %edi,%eax
   11c31:	ee                   	out    %al,(%dx)
        ret = wait_for_write();
   11c32:	b3 01                	mov    $0x1,%bl
    if (ret)
    {
        port_write_byte(port, data);
    }
    return ret;
}
   11c34:	88 d8                	mov    %bl,%al
   11c36:	8d 65 f4             	lea    -0xc(%ebp),%esp
   11c39:	5b                   	pop    %ebx
   11c3a:	5e                   	pop    %esi
   11c3b:	5f                   	pop    %edi
   11c3c:	5d                   	pop    %ebp
   11c3d:	c3                   	ret    

00011c3e <ps2_read>:

bool ps2_read(u8 *data, bool wait_infinite)
{
   11c3e:	55                   	push   %ebp
   11c3f:	89 e5                	mov    %esp,%ebp
   11c41:	57                   	push   %edi
   11c42:	56                   	push   %esi
   11c43:	53                   	push   %ebx
   11c44:	83 ec 0c             	sub    $0xc,%esp
   11c47:	8b 7d 08             	mov    0x8(%ebp),%edi
   11c4a:	8a 5d 0c             	mov    0xc(%ebp),%bl
    while ((port_read_byte(PS2_PORT_STATUS) & PS2_SATTUS_OUT_FULL) == 0 && times--)
   11c4d:	be 33 00 00 00       	mov    $0x33,%esi
    __asm__ volatile("inb %1, %0"
   11c52:	e4 64                	in     $0x64,%al
   11c54:	a8 01                	test   $0x1,%al
   11c56:	75 12                	jne    11c6a <ps2_read+0x2c>
   11c58:	4e                   	dec    %esi
   11c59:	74 0f                	je     11c6a <ps2_read+0x2c>
        delay_ms(10);
   11c5b:	83 ec 0c             	sub    $0xc,%esp
   11c5e:	6a 0a                	push   $0xa
   11c60:	e8 30 32 00 00       	call   14e95 <delay_ms>
   11c65:	83 c4 10             	add    $0x10,%esp
   11c68:	eb e8                	jmp    11c52 <ps2_read+0x14>
   11c6a:	e4 64                	in     $0x64,%al
    bool ret;
    do
    {
        ret = wait_for_read();
    } while (!ret && wait_infinite);
   11c6c:	24 01                	and    $0x1,%al
   11c6e:	88 c2                	mov    %al,%dl
   11c70:	75 06                	jne    11c78 <ps2_read+0x3a>
   11c72:	84 db                	test   %bl,%bl
   11c74:	75 d7                	jne    11c4d <ps2_read+0xf>
   11c76:	eb 08                	jmp    11c80 <ps2_read+0x42>
   11c78:	e4 60                	in     $0x60,%al

    if (ret)
    {
        u8 tmp = port_read_byte(PS2_PORT_DATA);
        if (data)
   11c7a:	85 ff                	test   %edi,%edi
   11c7c:	74 02                	je     11c80 <ps2_read+0x42>
            *data = tmp;
   11c7e:	88 07                	mov    %al,(%edi)
    }
    return ret;
}
   11c80:	88 d0                	mov    %dl,%al
   11c82:	8d 65 f4             	lea    -0xc(%ebp),%esp
   11c85:	5b                   	pop    %ebx
   11c86:	5e                   	pop    %esi
   11c87:	5f                   	pop    %edi
   11c88:	5d                   	pop    %ebp
   11c89:	c3                   	ret    

00011c8a <ps2_setup>:
{
   11c8a:	55                   	push   %ebp
   11c8b:	89 e5                	mov    %esp,%ebp
   11c8d:	56                   	push   %esi
   11c8e:	53                   	push   %ebx
   11c8f:	83 ec 14             	sub    $0x14,%esp
    ps2_write(PS2_CMD_DISABLE_1, true, true);
   11c92:	6a 01                	push   $0x1
   11c94:	6a 01                	push   $0x1
   11c96:	68 ad 00 00 00       	push   $0xad
   11c9b:	e8 41 ff ff ff       	call   11be1 <ps2_write>
    ps2_write(PS2_CMD_DISABLE_2, true, true);
   11ca0:	83 c4 0c             	add    $0xc,%esp
   11ca3:	6a 01                	push   $0x1
   11ca5:	6a 01                	push   $0x1
   11ca7:	68 a7 00 00 00       	push   $0xa7
   11cac:	e8 30 ff ff ff       	call   11be1 <ps2_write>
    while (ps2_read(NULL, false))
   11cb1:	83 c4 10             	add    $0x10,%esp
   11cb4:	51                   	push   %ecx
   11cb5:	51                   	push   %ecx
   11cb6:	6a 00                	push   $0x0
   11cb8:	6a 00                	push   $0x0
   11cba:	e8 7f ff ff ff       	call   11c3e <ps2_read>
   11cbf:	83 c4 10             	add    $0x10,%esp
   11cc2:	84 c0                	test   %al,%al
   11cc4:	75 ee                	jne    11cb4 <ps2_setup+0x2a>
    ps2_write(PS2_CMD_READ_CONF, true, true);
   11cc6:	53                   	push   %ebx
   11cc7:	6a 01                	push   $0x1
   11cc9:	6a 01                	push   $0x1
   11ccb:	6a 20                	push   $0x20
   11ccd:	e8 0f ff ff ff       	call   11be1 <ps2_write>
    ps2_read(&conf, true);
   11cd2:	5e                   	pop    %esi
   11cd3:	58                   	pop    %eax
   11cd4:	6a 01                	push   $0x1
   11cd6:	8d 5d f6             	lea    -0xa(%ebp),%ebx
   11cd9:	53                   	push   %ebx
   11cda:	e8 5f ff ff ff       	call   11c3e <ps2_read>
    conf &= ~(PS2_CONF_INTR1 | PS2_CONF_INTR2 | PS2_CONF_TRANSLATION);
   11cdf:	80 65 f6 bc          	andb   $0xbc,-0xa(%ebp)
    ps2_write(PS2_CMD_WRITE_CONF, true, true);
   11ce3:	83 c4 0c             	add    $0xc,%esp
   11ce6:	6a 01                	push   $0x1
   11ce8:	6a 01                	push   $0x1
   11cea:	6a 60                	push   $0x60
   11cec:	e8 f0 fe ff ff       	call   11be1 <ps2_write>
    ps2_write(conf, false, true);
   11cf1:	83 c4 0c             	add    $0xc,%esp
   11cf4:	6a 01                	push   $0x1
   11cf6:	6a 00                	push   $0x0
   11cf8:	0f b6 45 f6          	movzbl -0xa(%ebp),%eax
   11cfc:	50                   	push   %eax
   11cfd:	e8 df fe ff ff       	call   11be1 <ps2_write>
    ps2_write(PS2_CMD_TEST_PS2, true, true);
   11d02:	83 c4 0c             	add    $0xc,%esp
   11d05:	6a 01                	push   $0x1
   11d07:	6a 01                	push   $0x1
   11d09:	68 aa 00 00 00       	push   $0xaa
   11d0e:	e8 ce fe ff ff       	call   11be1 <ps2_write>
    ps2_read(&result, true);
   11d13:	58                   	pop    %eax
   11d14:	5a                   	pop    %edx
   11d15:	6a 01                	push   $0x1
   11d17:	8d 75 f7             	lea    -0x9(%ebp),%esi
   11d1a:	56                   	push   %esi
   11d1b:	e8 1e ff ff ff       	call   11c3e <ps2_read>
    if (result != 0x55)
   11d20:	0f b6 45 f7          	movzbl -0x9(%ebp),%eax
   11d24:	83 c4 10             	add    $0x10,%esp
   11d27:	3c 55                	cmp    $0x55,%al
   11d29:	74 0a                	je     11d35 <ps2_setup+0xab>
        printf("PS/2 Controller Self Test Failed: 0x%x\n", result);
   11d2b:	51                   	push   %ecx
   11d2c:	51                   	push   %ecx
   11d2d:	50                   	push   %eax
   11d2e:	68 60 80 01 00       	push   $0x18060
   11d33:	eb 3f                	jmp    11d74 <ps2_setup+0xea>
    ps2_write(PS2_CMD_TEST_1, true, true);
   11d35:	50                   	push   %eax
   11d36:	6a 01                	push   $0x1
   11d38:	6a 01                	push   $0x1
   11d3a:	68 ab 00 00 00       	push   $0xab
   11d3f:	e8 9d fe ff ff       	call   11be1 <ps2_write>
    ps2_read(&result, true);
   11d44:	58                   	pop    %eax
   11d45:	5a                   	pop    %edx
   11d46:	6a 01                	push   $0x1
   11d48:	56                   	push   %esi
   11d49:	e8 f0 fe ff ff       	call   11c3e <ps2_read>
    if (result)
   11d4e:	0f b6 45 f7          	movzbl -0x9(%ebp),%eax
   11d52:	83 c4 10             	add    $0x10,%esp
   11d55:	84 c0                	test   %al,%al
   11d57:	74 0a                	je     11d63 <ps2_setup+0xd9>
        printf("First PS/2 Port Test Failed: 0x%x\n", result);
   11d59:	53                   	push   %ebx
   11d5a:	53                   	push   %ebx
   11d5b:	50                   	push   %eax
   11d5c:	68 88 80 01 00       	push   $0x18088
   11d61:	eb 11                	jmp    11d74 <ps2_setup+0xea>
    if (!kbd_setup())
   11d63:	e8 d0 2d 00 00       	call   14b38 <kbd_setup>
   11d68:	84 c0                	test   %al,%al
   11d6a:	75 0f                	jne    11d7b <ps2_setup+0xf1>
        printf("Keyboard Initial Failed!\n");
   11d6c:	83 ec 0c             	sub    $0xc,%esp
   11d6f:	68 ab 80 01 00       	push   $0x180ab
   11d74:	e8 81 11 00 00       	call   12efa <printf>
   11d79:	eb 52                	jmp    11dcd <ps2_setup+0x143>
        ps2_write(PS2_CMD_READ_CONF, true, true);
   11d7b:	50                   	push   %eax
   11d7c:	6a 01                	push   $0x1
   11d7e:	6a 01                	push   $0x1
   11d80:	6a 20                	push   $0x20
   11d82:	e8 5a fe ff ff       	call   11be1 <ps2_write>
        ps2_read(&conf, true);
   11d87:	5a                   	pop    %edx
   11d88:	59                   	pop    %ecx
   11d89:	6a 01                	push   $0x1
   11d8b:	53                   	push   %ebx
   11d8c:	e8 ad fe ff ff       	call   11c3e <ps2_read>
        conf &= ~(PS2_CONF_TRANSLATION | PS2_CONF_INTR2);
   11d91:	8a 45 f6             	mov    -0xa(%ebp),%al
   11d94:	83 e0 bd             	and    $0xffffffbd,%eax
        conf |= PS2_CONF_INTR1;
   11d97:	83 c8 01             	or     $0x1,%eax
   11d9a:	88 45 f6             	mov    %al,-0xa(%ebp)
        ps2_write(PS2_CMD_WRITE_CONF, true, true);
   11d9d:	83 c4 0c             	add    $0xc,%esp
   11da0:	6a 01                	push   $0x1
   11da2:	6a 01                	push   $0x1
   11da4:	6a 60                	push   $0x60
   11da6:	e8 36 fe ff ff       	call   11be1 <ps2_write>
        ps2_write(conf, false, true);
   11dab:	83 c4 0c             	add    $0xc,%esp
   11dae:	6a 01                	push   $0x1
   11db0:	6a 00                	push   $0x0
   11db2:	0f b6 45 f6          	movzbl -0xa(%ebp),%eax
   11db6:	50                   	push   %eax
   11db7:	e8 25 fe ff ff       	call   11be1 <ps2_write>
        ps2_write(PS2_CMD_ENABLE_1, true, true);
   11dbc:	83 c4 0c             	add    $0xc,%esp
   11dbf:	6a 01                	push   $0x1
   11dc1:	6a 01                	push   $0x1
   11dc3:	68 ae 00 00 00       	push   $0xae
   11dc8:	e8 14 fe ff ff       	call   11be1 <ps2_write>
   11dcd:	83 c4 10             	add    $0x10,%esp
}
   11dd0:	8d 65 f8             	lea    -0x8(%ebp),%esp
   11dd3:	5b                   	pop    %ebx
   11dd4:	5e                   	pop    %esi
   11dd5:	5d                   	pop    %ebp
   11dd6:	c3                   	ret    

00011dd7 <apm_setup>:
static u16 _version;

extern u32 apm_entry_call(u32 seg, u32 entrypoint, u32 func, u32 devid, u32 pstate);

void apm_setup(const struct apm_configuration *info)
{
   11dd7:	55                   	push   %ebp
   11dd8:	89 e5                	mov    %esp,%ebp
   11dda:	56                   	push   %esi
   11ddb:	53                   	push   %ebx
   11ddc:	83 ec 10             	sub    $0x10,%esp
   11ddf:	8b 5d 08             	mov    0x8(%ebp),%ebx
    if(info->ok) {
   11de2:	80 7b 19 00          	cmpb   $0x0,0x19(%ebx)
   11de6:	74 6f                	je     11e57 <apm_setup+0x80>
        struct gdt_entry entry;
        // gdt_get_entry(APM_CS16, &entry);
        entry.base = info->cs16_base;
   11de8:	8b 43 09             	mov    0x9(%ebx),%eax
   11deb:	89 45 ec             	mov    %eax,-0x14(%ebp)
        entry.limit = info->cs16_size;
   11dee:	0f b7 43 0d          	movzwl 0xd(%ebx),%eax
   11df2:	89 45 f0             	mov    %eax,-0x10(%ebp)
        entry.attr = SEG_CODE_XR | SEG_PRESENT | SEG_DPL_KERNEL;
   11df5:	c7 45 f4 9a 00 00 00 	movl   $0x9a,-0xc(%ebp)
        gdt_set_entry(APM_CS16, &entry);
   11dfc:	50                   	push   %eax
   11dfd:	50                   	push   %eax
   11dfe:	8d 75 ec             	lea    -0x14(%ebp),%esi
   11e01:	56                   	push   %esi
   11e02:	6a 04                	push   $0x4
   11e04:	e8 fb 1b 00 00       	call   13a04 <gdt_set_entry>

        entry.base = info->cs32_base;
   11e09:	8b 43 03             	mov    0x3(%ebx),%eax
   11e0c:	89 45 ec             	mov    %eax,-0x14(%ebp)
        entry.limit = info->cs32_size;
   11e0f:	0f b7 43 07          	movzwl 0x7(%ebx),%eax
   11e13:	89 45 f0             	mov    %eax,-0x10(%ebp)
        entry.attr = SEG_CODE_XR | SEG_PRESENT | SEG_DPL_KERNEL | SEG_32BITS;
   11e16:	c7 45 f4 9a 04 00 00 	movl   $0x49a,-0xc(%ebp)
        gdt_set_entry(APM_CS32, &entry);
   11e1d:	5a                   	pop    %edx
   11e1e:	59                   	pop    %ecx
   11e1f:	56                   	push   %esi
   11e20:	6a 03                	push   $0x3
   11e22:	e8 dd 1b 00 00       	call   13a04 <gdt_set_entry>

        entry.base = info->ds_base;
   11e27:	8b 43 0f             	mov    0xf(%ebx),%eax
   11e2a:	89 45 ec             	mov    %eax,-0x14(%ebp)
        entry.limit = info->ds_size;
   11e2d:	0f b7 43 13          	movzwl 0x13(%ebx),%eax
   11e31:	89 45 f0             	mov    %eax,-0x10(%ebp)
        entry.attr = SEG_DATA_RW | SEG_PRESENT | SEG_DPL_KERNEL | SEG_32BITS;
   11e34:	c7 45 f4 92 04 00 00 	movl   $0x492,-0xc(%ebp)
        gdt_set_entry(APM_DS, &entry);
   11e3b:	58                   	pop    %eax
   11e3c:	5a                   	pop    %edx
   11e3d:	56                   	push   %esi
   11e3e:	6a 05                	push   $0x5
   11e40:	e8 bf 1b 00 00       	call   13a04 <gdt_set_entry>

        _entrypoint = info->entry_point;
   11e45:	8b 43 15             	mov    0x15(%ebx),%eax
   11e48:	a3 60 aa 01 00       	mov    %eax,0x1aa60
        _version = info->version;
        _present = true;
   11e4d:	c6 05 64 aa 01 00 01 	movb   $0x1,0x1aa64
   11e54:	83 c4 10             	add    $0x10,%esp
    }
}
   11e57:	8d 65 f8             	lea    -0x8(%ebp),%esp
   11e5a:	5b                   	pop    %ebx
   11e5b:	5e                   	pop    %esi
   11e5c:	5d                   	pop    %ebp
   11e5d:	c3                   	ret    

00011e5e <apm_shutdown>:

bool apm_shutdown(void)
{
   11e5e:	55                   	push   %ebp
   11e5f:	89 e5                	mov    %esp,%ebp
   11e61:	53                   	push   %ebx
   11e62:	50                   	push   %eax
    if(_present) {
   11e63:	8a 1d 64 aa 01 00    	mov    0x1aa64,%bl
   11e69:	84 db                	test   %bl,%bl
   11e6b:	74 19                	je     11e86 <apm_shutdown+0x28>
        u32 err = apm_entry_call(APM_CS32 << 3, _entrypoint, 0x7, 0x1, 0x3);
   11e6d:	83 ec 0c             	sub    $0xc,%esp
   11e70:	6a 03                	push   $0x3
   11e72:	6a 01                	push   $0x1
   11e74:	6a 07                	push   $0x7
   11e76:	ff 35 60 aa 01 00    	push   0x1aa60
   11e7c:	6a 18                	push   $0x18
   11e7e:	e8 0d 00 00 00       	call   11e90 <apm_entry_call>
        // printf("%s - apm_entry_call failed - 0x%x\n", __func__, err);
        // err = apm_entry_call(APM_CS32 << 3, _entrypoint, 0x7, 0x1, 0x1);
        // printf("%s - apm_entry_call failed - 0x%x\n", __func__, err);
        // err = apm_entry_call(APM_CS32 << 3, _entrypoint, 0x5, 0, 0);
        // printf("%s - apm_entry_call failed - 0x%x\n", __func__, err);
        return true;
   11e83:	83 c4 20             	add    $0x20,%esp
    }
    return false;
}
   11e86:	88 d8                	mov    %bl,%al
   11e88:	8b 5d fc             	mov    -0x4(%ebp),%ebx
   11e8b:	c9                   	leave  
   11e8c:	c3                   	ret    
   11e8d:	66 90                	xchg   %ax,%ax
   11e8f:	90                   	nop

00011e90 <apm_entry_call>:
   11e90:	55                   	push   %ebp
   11e91:	89 e5                	mov    %esp,%ebp
   11e93:	53                   	push   %ebx
   11e94:	51                   	push   %ecx
   11e95:	b4 53                	mov    $0x53,%ah
   11e97:	8a 45 10             	mov    0x10(%ebp),%al
   11e9a:	66 8b 5d 14          	mov    0x14(%ebp),%bx
   11e9e:	66 8b 4d 18          	mov    0x18(%ebp),%cx
   11ea2:	66 ff 75 08          	pushw  0x8(%ebp)
   11ea6:	ff 75 0c             	push   0xc(%ebp)
   11ea9:	ff 1c 24             	lcall  *(%esp)
   11eac:	83 c4 06             	add    $0x6,%esp
   11eaf:	72 02                	jb     11eb3 <apm_entry_call.Exit>
   11eb1:	30 e4                	xor    %ah,%ah

00011eb3 <apm_entry_call.Exit>:
   11eb3:	0f b6 c4             	movzbl %ah,%eax
   11eb6:	59                   	pop    %ecx
   11eb7:	5b                   	pop    %ebx
   11eb8:	5d                   	pop    %ebp
   11eb9:	c3                   	ret    

00011eba <get_set_count>:
#include "bitmap.h"
#include "string.h"

static u32 get_set_count(u8 *byte, u32 size)
{
   11eba:	55                   	push   %ebp
   11ebb:	89 e5                	mov    %esp,%ebp
   11ebd:	56                   	push   %esi
   11ebe:	53                   	push   %ebx
    u32 count = 0;
    for (u32 i = 0; i < size; ++i)
   11ebf:	8d 1c 10             	lea    (%eax,%edx,1),%ebx
    u32 count = 0;
   11ec2:	31 c9                	xor    %ecx,%ecx
    {
        u8 data = byte[i];
   11ec4:	8a 10                	mov    (%eax),%dl
        while (data)
   11ec6:	84 d2                	test   %dl,%dl
   11ec8:	74 08                	je     11ed2 <get_set_count+0x18>
        {
            ++count;
   11eca:	41                   	inc    %ecx
            data &= data - 1;
   11ecb:	8d 72 ff             	lea    -0x1(%edx),%esi
   11ece:	21 f2                	and    %esi,%edx
   11ed0:	eb f4                	jmp    11ec6 <get_set_count+0xc>
    for (u32 i = 0; i < size; ++i)
   11ed2:	40                   	inc    %eax
   11ed3:	39 d8                	cmp    %ebx,%eax
   11ed5:	75 ed                	jne    11ec4 <get_set_count+0xa>
        }
    }
    return count;
}
   11ed7:	89 c8                	mov    %ecx,%eax
   11ed9:	5b                   	pop    %ebx
   11eda:	5e                   	pop    %esi
   11edb:	5d                   	pop    %ebp
   11edc:	c3                   	ret    

00011edd <bitmap_init>:

void bitmap_init(struct bitmap *map, void *buf, u32 buf_size)
{
   11edd:	55                   	push   %ebp
   11ede:	89 e5                	mov    %esp,%ebp
   11ee0:	8b 45 08             	mov    0x8(%ebp),%eax
   11ee3:	8b 4d 0c             	mov    0xc(%ebp),%ecx
    map->data = buf;
   11ee6:	89 08                	mov    %ecx,(%eax)
    map->size = buf_size * 8;
   11ee8:	8b 55 10             	mov    0x10(%ebp),%edx
   11eeb:	c1 e2 03             	shl    $0x3,%edx
   11eee:	89 50 04             	mov    %edx,0x4(%eax)
    map->first_clear = 0;
   11ef1:	c7 40 08 00 00 00 00 	movl   $0x0,0x8(%eax)
    map->clear_count = map->size;
   11ef8:	89 50 0c             	mov    %edx,0xc(%eax)
    memset(buf, 0, buf_size);
   11efb:	c7 45 0c 00 00 00 00 	movl   $0x0,0xc(%ebp)
   11f02:	89 4d 08             	mov    %ecx,0x8(%ebp)
}
   11f05:	5d                   	pop    %ebp
    memset(buf, 0, buf_size);
   11f06:	e9 4d 45 00 00       	jmp    16458 <memset>

00011f0b <bitmap_set>:

void bitmap_set(struct bitmap *map, u32 idx, u32 count)
{
   11f0b:	55                   	push   %ebp
   11f0c:	89 e5                	mov    %esp,%ebp
   11f0e:	57                   	push   %edi
   11f0f:	56                   	push   %esi
   11f10:	53                   	push   %ebx
   11f11:	83 ec 2c             	sub    $0x2c,%esp
   11f14:	8b 7d 08             	mov    0x8(%ebp),%edi
   11f17:	8b 5d 0c             	mov    0xc(%ebp),%ebx
   11f1a:	8b 45 10             	mov    0x10(%ebp),%eax
    if (idx >= map->size)
   11f1d:	8b 4f 04             	mov    0x4(%edi),%ecx
   11f20:	39 d9                	cmp    %ebx,%ecx
   11f22:	0f 86 6c 01 00 00    	jbe    12094 <bitmap_set+0x189>
        return;
    if (idx < map->first_clear)
   11f28:	8b 57 08             	mov    0x8(%edi),%edx
   11f2b:	39 da                	cmp    %ebx,%edx
   11f2d:	76 12                	jbe    11f41 <bitmap_set+0x36>
    {
        if (count <= map->first_clear - idx)
   11f2f:	89 d6                	mov    %edx,%esi
   11f31:	29 de                	sub    %ebx,%esi
   11f33:	39 c6                	cmp    %eax,%esi
   11f35:	0f 83 59 01 00 00    	jae    12094 <bitmap_set+0x189>
            return;
        count -= map->first_clear - idx;
   11f3b:	01 d8                	add    %ebx,%eax
   11f3d:	29 d0                	sub    %edx,%eax
   11f3f:	89 d3                	mov    %edx,%ebx
        idx = map->first_clear;
    }
    if (count > map->size)
   11f41:	89 4d e4             	mov    %ecx,-0x1c(%ebp)
   11f44:	39 c1                	cmp    %eax,%ecx
   11f46:	76 03                	jbe    11f4b <bitmap_set+0x40>
   11f48:	89 45 e4             	mov    %eax,-0x1c(%ebp)
        count = map->size;
    if (idx + count > map->size)
   11f4b:	8b 45 e4             	mov    -0x1c(%ebp),%eax
   11f4e:	01 d8                	add    %ebx,%eax
   11f50:	39 c1                	cmp    %eax,%ecx
   11f52:	73 05                	jae    11f59 <bitmap_set+0x4e>
        count = map->size - idx;
   11f54:	29 d9                	sub    %ebx,%ecx
   11f56:	89 4d e4             	mov    %ecx,-0x1c(%ebp)
    if (!count)
   11f59:	83 7d e4 00          	cmpl   $0x0,-0x1c(%ebp)
   11f5d:	0f 84 31 01 00 00    	je     12094 <bitmap_set+0x189>
        return;

    if (idx == map->first_clear)
   11f63:	39 da                	cmp    %ebx,%edx
   11f65:	75 08                	jne    11f6f <bitmap_set+0x64>
    {
        map->first_clear += count;
   11f67:	8b 45 e4             	mov    -0x1c(%ebp),%eax
   11f6a:	01 d8                	add    %ebx,%eax
   11f6c:	89 47 08             	mov    %eax,0x8(%edi)
    }

    u32 offset = idx >> 3;
   11f6f:	89 de                	mov    %ebx,%esi
   11f71:	c1 ee 03             	shr    $0x3,%esi
    idx &= 7;

    if (idx)
   11f74:	83 e3 07             	and    $0x7,%ebx
   11f77:	0f 84 81 00 00 00    	je     11ffe <bitmap_set+0xf3>
    {
        u8 shift = 0;
        if (count < 8 - idx)
   11f7d:	b8 08 00 00 00       	mov    $0x8,%eax
   11f82:	29 d8                	sub    %ebx,%eax
   11f84:	3b 45 e4             	cmp    -0x1c(%ebp),%eax
   11f87:	76 10                	jbe    11f99 <bitmap_set+0x8e>
        {
            shift = 8 - idx - count;
   11f89:	b1 08                	mov    $0x8,%cl
   11f8b:	29 d9                	sub    %ebx,%ecx
   11f8d:	2b 4d e4             	sub    -0x1c(%ebp),%ecx
            count = 0;
   11f90:	c7 45 e4 00 00 00 00 	movl   $0x0,-0x1c(%ebp)
   11f97:	eb 0c                	jmp    11fa5 <bitmap_set+0x9a>
        }
        else
            count -= 8 - idx;
   11f99:	8b 45 e4             	mov    -0x1c(%ebp),%eax
   11f9c:	8d 44 18 f8          	lea    -0x8(%eax,%ebx,1),%eax
   11fa0:	89 45 e4             	mov    %eax,-0x1c(%ebp)
        u8 shift = 0;
   11fa3:	31 c9                	xor    %ecx,%ecx
   11fa5:	88 4d d7             	mov    %cl,-0x29(%ebp)
        if (map->data[offset] != 0xff)
   11fa8:	8b 07                	mov    (%edi),%eax
   11faa:	01 f0                	add    %esi,%eax
   11fac:	89 45 e0             	mov    %eax,-0x20(%ebp)
   11faf:	8a 00                	mov    (%eax),%al
   11fb1:	88 45 dc             	mov    %al,-0x24(%ebp)
   11fb4:	fe c0                	inc    %al
   11fb6:	74 46                	je     11ffe <bitmap_set+0xf3>
        {
            u8 old = get_set_count(&map->data[offset], 1);
   11fb8:	ba 01 00 00 00       	mov    $0x1,%edx
   11fbd:	8b 45 e0             	mov    -0x20(%ebp),%eax
   11fc0:	e8 f5 fe ff ff       	call   11eba <get_set_count>
   11fc5:	89 45 d8             	mov    %eax,-0x28(%ebp)
            map->data[offset] |= 0xff >> shift & 0xff << idx;
   11fc8:	ba ff 00 00 00       	mov    $0xff,%edx
   11fcd:	89 d0                	mov    %edx,%eax
   11fcf:	8a 4d d7             	mov    -0x29(%ebp),%cl
   11fd2:	d3 f8                	sar    %cl,%eax
   11fd4:	88 d9                	mov    %bl,%cl
   11fd6:	d3 e2                	shl    %cl,%edx
   11fd8:	21 d0                	and    %edx,%eax
   11fda:	0b 45 dc             	or     -0x24(%ebp),%eax
   11fdd:	8b 55 e0             	mov    -0x20(%ebp),%edx
   11fe0:	88 02                	mov    %al,(%edx)
            map->clear_count -= get_set_count(&map->data[offset++], 1) - old;
   11fe2:	8d 5e 01             	lea    0x1(%esi),%ebx
   11fe5:	8b 07                	mov    (%edi),%eax
   11fe7:	01 f0                	add    %esi,%eax
   11fe9:	ba 01 00 00 00       	mov    $0x1,%edx
   11fee:	e8 c7 fe ff ff       	call   11eba <get_set_count>
   11ff3:	0f b6 75 d8          	movzbl -0x28(%ebp),%esi
   11ff7:	29 c6                	sub    %eax,%esi
   11ff9:	01 77 0c             	add    %esi,0xc(%edi)
   11ffc:	89 de                	mov    %ebx,%esi
        }
    }

    if (count & 0xfffffff8)
   11ffe:	8b 45 e4             	mov    -0x1c(%ebp),%eax
   12001:	83 e0 f8             	and    $0xfffffff8,%eax
   12004:	89 45 e0             	mov    %eax,-0x20(%ebp)
   12007:	74 41                	je     1204a <bitmap_set+0x13f>
    { // count >= 8
        u32 size = count >> 3;
   12009:	8b 5d e4             	mov    -0x1c(%ebp),%ebx
   1200c:	c1 eb 03             	shr    $0x3,%ebx
        u32 need_set = (size << 3) - get_set_count(&map->data[offset], size);
   1200f:	8b 0f                	mov    (%edi),%ecx
   12011:	01 f1                	add    %esi,%ecx
   12013:	89 da                	mov    %ebx,%edx
   12015:	89 c8                	mov    %ecx,%eax
   12017:	89 4d dc             	mov    %ecx,-0x24(%ebp)
   1201a:	e8 9b fe ff ff       	call   11eba <get_set_count>
   1201f:	89 c2                	mov    %eax,%edx
        if (need_set)
   12021:	39 45 e0             	cmp    %eax,-0x20(%ebp)
   12024:	74 1e                	je     12044 <bitmap_set+0x139>
        {
            map->clear_count -= need_set;
   12026:	8b 47 0c             	mov    0xc(%edi),%eax
   12029:	2b 45 e0             	sub    -0x20(%ebp),%eax
   1202c:	01 d0                	add    %edx,%eax
   1202e:	89 47 0c             	mov    %eax,0xc(%edi)
            memset(&map->data[offset], 0xff, size);
   12031:	50                   	push   %eax
   12032:	53                   	push   %ebx
   12033:	68 ff 00 00 00       	push   $0xff
   12038:	8b 4d dc             	mov    -0x24(%ebp),%ecx
   1203b:	51                   	push   %ecx
   1203c:	e8 17 44 00 00       	call   16458 <memset>
   12041:	83 c4 10             	add    $0x10,%esp
        }
        offset += size;
   12044:	01 de                	add    %ebx,%esi
        count &= 7;
   12046:	83 65 e4 07          	andl   $0x7,-0x1c(%ebp)
    }

    if (count)
   1204a:	83 7d e4 00          	cmpl   $0x0,-0x1c(%ebp)
   1204e:	74 44                	je     12094 <bitmap_set+0x189>
    {
        if (map->data[offset] != 0xff)
   12050:	8b 1f                	mov    (%edi),%ebx
   12052:	01 f3                	add    %esi,%ebx
   12054:	8a 03                	mov    (%ebx),%al
   12056:	88 45 e0             	mov    %al,-0x20(%ebp)
   12059:	fe c0                	inc    %al
   1205b:	74 37                	je     12094 <bitmap_set+0x189>
        {
            u8 old = get_set_count(&map->data[offset], 1);
   1205d:	ba 01 00 00 00       	mov    $0x1,%edx
   12062:	89 d8                	mov    %ebx,%eax
   12064:	e8 51 fe ff ff       	call   11eba <get_set_count>
   12069:	89 45 dc             	mov    %eax,-0x24(%ebp)
            map->data[offset] |= ~(0xff << count);
   1206c:	b8 ff 00 00 00       	mov    $0xff,%eax
   12071:	8a 4d e4             	mov    -0x1c(%ebp),%cl
   12074:	d3 e0                	shl    %cl,%eax
   12076:	f7 d0                	not    %eax
   12078:	0b 45 e0             	or     -0x20(%ebp),%eax
   1207b:	88 03                	mov    %al,(%ebx)
            map->clear_count -= get_set_count(&map->data[offset], 1) - old;
   1207d:	8b 07                	mov    (%edi),%eax
   1207f:	01 f0                	add    %esi,%eax
   12081:	ba 01 00 00 00       	mov    $0x1,%edx
   12086:	e8 2f fe ff ff       	call   11eba <get_set_count>
   1208b:	0f b6 5d dc          	movzbl -0x24(%ebp),%ebx
   1208f:	29 c3                	sub    %eax,%ebx
   12091:	01 5f 0c             	add    %ebx,0xc(%edi)
        }
    }
}
   12094:	8d 65 f4             	lea    -0xc(%ebp),%esp
   12097:	5b                   	pop    %ebx
   12098:	5e                   	pop    %esi
   12099:	5f                   	pop    %edi
   1209a:	5d                   	pop    %ebp
   1209b:	c3                   	ret    

0001209c <bitmap_clear>:

void bitmap_clear(struct bitmap *map, u32 idx, u32 count)
{
   1209c:	55                   	push   %ebp
   1209d:	89 e5                	mov    %esp,%ebp
   1209f:	57                   	push   %edi
   120a0:	56                   	push   %esi
   120a1:	53                   	push   %ebx
   120a2:	83 ec 2c             	sub    $0x2c,%esp
   120a5:	8b 75 08             	mov    0x8(%ebp),%esi
   120a8:	8b 5d 0c             	mov    0xc(%ebp),%ebx
   120ab:	8b 55 10             	mov    0x10(%ebp),%edx
    if (idx >= map->size)
   120ae:	8b 46 04             	mov    0x4(%esi),%eax
   120b1:	39 d8                	cmp    %ebx,%eax
   120b3:	0f 86 4a 01 00 00    	jbe    12203 <bitmap_clear+0x167>
        return;
    if (idx == map->first_clear)
   120b9:	8b 4e 08             	mov    0x8(%esi),%ecx
   120bc:	39 d9                	cmp    %ebx,%ecx
   120be:	75 04                	jne    120c4 <bitmap_clear+0x28>
    {
        idx = map->first_clear + 1;
   120c0:	8d 59 01             	lea    0x1(%ecx),%ebx
        --count;
   120c3:	4a                   	dec    %edx
    }
    if (count > map->size)
   120c4:	89 45 e4             	mov    %eax,-0x1c(%ebp)
   120c7:	39 d0                	cmp    %edx,%eax
   120c9:	76 03                	jbe    120ce <bitmap_clear+0x32>
   120cb:	89 55 e4             	mov    %edx,-0x1c(%ebp)
        count = map->size;
    if (idx + count > map->size)
   120ce:	8b 7d e4             	mov    -0x1c(%ebp),%edi
   120d1:	8d 14 3b             	lea    (%ebx,%edi,1),%edx
   120d4:	39 d0                	cmp    %edx,%eax
   120d6:	73 05                	jae    120dd <bitmap_clear+0x41>
        count = map->size - idx;
   120d8:	29 d8                	sub    %ebx,%eax
   120da:	89 45 e4             	mov    %eax,-0x1c(%ebp)
    if (!count)
   120dd:	83 7d e4 00          	cmpl   $0x0,-0x1c(%ebp)
   120e1:	0f 84 1c 01 00 00    	je     12203 <bitmap_clear+0x167>
        return;

    if (idx < map->first_clear)
   120e7:	39 d9                	cmp    %ebx,%ecx
   120e9:	76 03                	jbe    120ee <bitmap_clear+0x52>
        map->first_clear = idx;
   120eb:	89 5e 08             	mov    %ebx,0x8(%esi)

    u32 offset = idx >> 3;
   120ee:	89 df                	mov    %ebx,%edi
   120f0:	c1 ef 03             	shr    $0x3,%edi
    idx &= 7;

    if (idx)
   120f3:	83 e3 07             	and    $0x7,%ebx
   120f6:	0f 84 83 00 00 00    	je     1217f <bitmap_clear+0xe3>
    {
        u8 shift = 0;
        if (count < 8 - idx)
   120fc:	b8 08 00 00 00       	mov    $0x8,%eax
   12101:	29 d8                	sub    %ebx,%eax
   12103:	3b 45 e4             	cmp    -0x1c(%ebp),%eax
   12106:	76 10                	jbe    12118 <bitmap_clear+0x7c>
        {
            shift = 8 - idx - count;
   12108:	b1 08                	mov    $0x8,%cl
   1210a:	29 d9                	sub    %ebx,%ecx
   1210c:	2b 4d e4             	sub    -0x1c(%ebp),%ecx
            count = 0;
   1210f:	c7 45 e4 00 00 00 00 	movl   $0x0,-0x1c(%ebp)
   12116:	eb 0c                	jmp    12124 <bitmap_clear+0x88>
        }
        else
            count -= 8 - idx;
   12118:	8b 45 e4             	mov    -0x1c(%ebp),%eax
   1211b:	8d 44 18 f8          	lea    -0x8(%eax,%ebx,1),%eax
   1211f:	89 45 e4             	mov    %eax,-0x1c(%ebp)
        u8 shift = 0;
   12122:	31 c9                	xor    %ecx,%ecx
        if (map->data[offset] != 0)
   12124:	8b 06                	mov    (%esi),%eax
   12126:	01 f8                	add    %edi,%eax
   12128:	89 45 e0             	mov    %eax,-0x20(%ebp)
   1212b:	8a 00                	mov    (%eax),%al
   1212d:	88 45 dc             	mov    %al,-0x24(%ebp)
   12130:	84 c0                	test   %al,%al
   12132:	74 4b                	je     1217f <bitmap_clear+0xe3>
   12134:	88 4d d7             	mov    %cl,-0x29(%ebp)
        {
            u8 old = get_set_count(&map->data[offset], 1);
   12137:	ba 01 00 00 00       	mov    $0x1,%edx
   1213c:	8b 45 e0             	mov    -0x20(%ebp),%eax
   1213f:	e8 76 fd ff ff       	call   11eba <get_set_count>
   12144:	89 45 d8             	mov    %eax,-0x28(%ebp)
            map->data[offset] &= ~(0xff >> shift & 0xff << idx);
   12147:	b8 ff 00 00 00       	mov    $0xff,%eax
   1214c:	89 c2                	mov    %eax,%edx
   1214e:	8a 4d d7             	mov    -0x29(%ebp),%cl
   12151:	d3 fa                	sar    %cl,%edx
   12153:	88 d9                	mov    %bl,%cl
   12155:	d3 e0                	shl    %cl,%eax
   12157:	21 c2                	and    %eax,%edx
   12159:	f7 d2                	not    %edx
   1215b:	23 55 dc             	and    -0x24(%ebp),%edx
   1215e:	8b 45 e0             	mov    -0x20(%ebp),%eax
   12161:	88 10                	mov    %dl,(%eax)
            map->clear_count += old - get_set_count(&map->data[offset++], 1);
   12163:	8d 5f 01             	lea    0x1(%edi),%ebx
   12166:	8b 06                	mov    (%esi),%eax
   12168:	01 f8                	add    %edi,%eax
   1216a:	ba 01 00 00 00       	mov    $0x1,%edx
   1216f:	e8 46 fd ff ff       	call   11eba <get_set_count>
   12174:	0f b6 7d d8          	movzbl -0x28(%ebp),%edi
   12178:	29 c7                	sub    %eax,%edi
   1217a:	01 7e 0c             	add    %edi,0xc(%esi)
   1217d:	89 df                	mov    %ebx,%edi
        }
    }

    if (count & 0xfffffff8)
   1217f:	f7 45 e4 f8 ff ff ff 	testl  $0xfffffff8,-0x1c(%ebp)
   12186:	74 33                	je     121bb <bitmap_clear+0x11f>
    { // count >= 8
        u32 size = count >> 3;
   12188:	8b 5d e4             	mov    -0x1c(%ebp),%ebx
   1218b:	c1 eb 03             	shr    $0x3,%ebx
        u32 need_clear = get_set_count(&map->data[offset], size);
   1218e:	8b 0e                	mov    (%esi),%ecx
   12190:	01 f9                	add    %edi,%ecx
   12192:	89 da                	mov    %ebx,%edx
   12194:	89 c8                	mov    %ecx,%eax
   12196:	89 4d e0             	mov    %ecx,-0x20(%ebp)
   12199:	e8 1c fd ff ff       	call   11eba <get_set_count>
        if (need_clear)
   1219e:	85 c0                	test   %eax,%eax
   121a0:	8b 4d e0             	mov    -0x20(%ebp),%ecx
   121a3:	74 10                	je     121b5 <bitmap_clear+0x119>
        {
            map->clear_count += need_clear;
   121a5:	01 46 0c             	add    %eax,0xc(%esi)
            memset(&map->data[offset], 0, size);
   121a8:	50                   	push   %eax
   121a9:	53                   	push   %ebx
   121aa:	6a 00                	push   $0x0
   121ac:	51                   	push   %ecx
   121ad:	e8 a6 42 00 00       	call   16458 <memset>
   121b2:	83 c4 10             	add    $0x10,%esp
        }
        offset += size;
   121b5:	01 df                	add    %ebx,%edi
        count &= 7;
   121b7:	83 65 e4 07          	andl   $0x7,-0x1c(%ebp)
    }

    if (count)
   121bb:	83 7d e4 00          	cmpl   $0x0,-0x1c(%ebp)
   121bf:	74 42                	je     12203 <bitmap_clear+0x167>
    {
        if (map->data[offset] != 0)
   121c1:	8b 1e                	mov    (%esi),%ebx
   121c3:	01 fb                	add    %edi,%ebx
   121c5:	8a 03                	mov    (%ebx),%al
   121c7:	88 45 e0             	mov    %al,-0x20(%ebp)
   121ca:	84 c0                	test   %al,%al
   121cc:	74 35                	je     12203 <bitmap_clear+0x167>
        {
            u8 old = get_set_count(&map->data[offset], 1);
   121ce:	ba 01 00 00 00       	mov    $0x1,%edx
   121d3:	89 d8                	mov    %ebx,%eax
   121d5:	e8 e0 fc ff ff       	call   11eba <get_set_count>
   121da:	89 45 dc             	mov    %eax,-0x24(%ebp)
            map->data[offset] &= 0xff << count;
   121dd:	b8 ff 00 00 00       	mov    $0xff,%eax
   121e2:	8a 4d e4             	mov    -0x1c(%ebp),%cl
   121e5:	d3 e0                	shl    %cl,%eax
   121e7:	23 45 e0             	and    -0x20(%ebp),%eax
   121ea:	88 03                	mov    %al,(%ebx)
            map->clear_count += old - get_set_count(&map->data[offset++], 1);
   121ec:	8b 06                	mov    (%esi),%eax
   121ee:	01 f8                	add    %edi,%eax
   121f0:	ba 01 00 00 00       	mov    $0x1,%edx
   121f5:	e8 c0 fc ff ff       	call   11eba <get_set_count>
   121fa:	0f b6 5d dc          	movzbl -0x24(%ebp),%ebx
   121fe:	29 c3                	sub    %eax,%ebx
   12200:	01 5e 0c             	add    %ebx,0xc(%esi)
        }
    }
}
   12203:	8d 65 f4             	lea    -0xc(%ebp),%esp
   12206:	5b                   	pop    %ebx
   12207:	5e                   	pop    %esi
   12208:	5f                   	pop    %edi
   12209:	5d                   	pop    %ebp
   1220a:	c3                   	ret    

0001220b <bitmap_test>:

bool bitmap_test(const struct bitmap *map, u32 idx)
{
   1220b:	55                   	push   %ebp
   1220c:	89 e5                	mov    %esp,%ebp
   1220e:	53                   	push   %ebx
   1220f:	8b 55 08             	mov    0x8(%ebp),%edx
   12212:	8b 4d 0c             	mov    0xc(%ebp),%ecx
    if (idx < map->first_clear || idx >= map->size)
   12215:	8b 5a 08             	mov    0x8(%edx),%ebx
        return true;
   12218:	b0 01                	mov    $0x1,%al
    if (idx < map->first_clear || idx >= map->size)
   1221a:	39 cb                	cmp    %ecx,%ebx
   1221c:	77 25                	ja     12243 <bitmap_test+0x38>
   1221e:	39 4a 04             	cmp    %ecx,0x4(%edx)
   12221:	76 20                	jbe    12243 <bitmap_test+0x38>
    else if (idx == map->first_clear)
        return false;
   12223:	31 c0                	xor    %eax,%eax
    else if (idx == map->first_clear)
   12225:	39 cb                	cmp    %ecx,%ebx
   12227:	74 1a                	je     12243 <bitmap_test+0x38>
    u32 offset = idx >> 3;
   12229:	89 c8                	mov    %ecx,%eax
   1222b:	c1 e8 03             	shr    $0x3,%eax
    idx &= 7;
    return map->data[offset] & (1 << idx);
   1222e:	8b 12                	mov    (%edx),%edx
   12230:	0f b6 14 02          	movzbl (%edx,%eax,1),%edx
    idx &= 7;
   12234:	83 e1 07             	and    $0x7,%ecx
    return map->data[offset] & (1 << idx);
   12237:	b8 01 00 00 00       	mov    $0x1,%eax
   1223c:	d3 e0                	shl    %cl,%eax
   1223e:	85 c2                	test   %eax,%edx
   12240:	0f 95 c0             	setne  %al
}
   12243:	5b                   	pop    %ebx
   12244:	5d                   	pop    %ebp
   12245:	c3                   	ret    

00012246 <bitmap_size>:

u32 bitmap_size(const struct bitmap *map)
{
   12246:	55                   	push   %ebp
   12247:	89 e5                	mov    %esp,%ebp
    return map->size;
   12249:	8b 45 08             	mov    0x8(%ebp),%eax
   1224c:	8b 40 04             	mov    0x4(%eax),%eax
}
   1224f:	5d                   	pop    %ebp
   12250:	c3                   	ret    

00012251 <bitmap_clear_count>:

u32 bitmap_clear_count(const struct bitmap *map)
{
   12251:	55                   	push   %ebp
   12252:	89 e5                	mov    %esp,%ebp
    return map->clear_count;
   12254:	8b 45 08             	mov    0x8(%ebp),%eax
   12257:	8b 40 0c             	mov    0xc(%eax),%eax
}
   1225a:	5d                   	pop    %ebp
   1225b:	c3                   	ret    

0001225c <bitmap_find_clear>:

u32 bitmap_find_clear(const struct bitmap *map, u32 idx)
{
   1225c:	55                   	push   %ebp
   1225d:	89 e5                	mov    %esp,%ebp
   1225f:	57                   	push   %edi
   12260:	56                   	push   %esi
   12261:	53                   	push   %ebx
   12262:	8b 7d 08             	mov    0x8(%ebp),%edi
   12265:	8b 5d 0c             	mov    0xc(%ebp),%ebx
    if (idx >= map->size || map->clear_count == 0)
   12268:	8b 57 04             	mov    0x4(%edi),%edx
        return -1;
   1226b:	83 c8 ff             	or     $0xffffffff,%eax
    if (idx >= map->size || map->clear_count == 0)
   1226e:	39 da                	cmp    %ebx,%edx
   12270:	76 3d                	jbe    122af <bitmap_find_clear+0x53>
   12272:	83 7f 0c 00          	cmpl   $0x0,0xc(%edi)
   12276:	74 37                	je     122af <bitmap_find_clear+0x53>
    if (idx <= map->first_clear)
   12278:	8b 47 08             	mov    0x8(%edi),%eax
   1227b:	39 d8                	cmp    %ebx,%eax
   1227d:	73 30                	jae    122af <bitmap_find_clear+0x53>
        return map->first_clear;

    u32 offset = idx >> 3;
   1227f:	89 de                	mov    %ebx,%esi
   12281:	c1 ee 03             	shr    $0x3,%esi
    u32 i = idx & 7;
   12284:	89 d9                	mov    %ebx,%ecx
   12286:	83 e1 07             	and    $0x7,%ecx

    // while(idx < map->size && map->data[offset] == 0xff) {
    //     ++offset;
    //     idx += 8;
    // }
    for (; idx < map->size && (map->data[offset] & (1 << i)); ++idx)
   12289:	8b 3f                	mov    (%edi),%edi
   1228b:	89 d8                	mov    %ebx,%eax
   1228d:	0f b6 1c 37          	movzbl (%edi,%esi,1),%ebx
   12291:	d3 fb                	sar    %cl,%ebx
   12293:	80 e3 01             	and    $0x1,%bl
   12296:	74 10                	je     122a8 <bitmap_find_clear+0x4c>
    {
        if (++i == 8)
   12298:	41                   	inc    %ecx
   12299:	83 f9 08             	cmp    $0x8,%ecx
   1229c:	75 03                	jne    122a1 <bitmap_find_clear+0x45>
        {
            ++offset;
   1229e:	46                   	inc    %esi
            i = 0;
   1229f:	31 c9                	xor    %ecx,%ecx
    for (; idx < map->size && (map->data[offset] & (1 << i)); ++idx)
   122a1:	40                   	inc    %eax
   122a2:	39 c2                	cmp    %eax,%edx
   122a4:	75 e7                	jne    1228d <bitmap_find_clear+0x31>
   122a6:	eb 04                	jmp    122ac <bitmap_find_clear+0x50>
        }
    }

    if (idx == map->size)
   122a8:	39 c2                	cmp    %eax,%edx
   122aa:	75 03                	jne    122af <bitmap_find_clear+0x53>
        return -1;
   122ac:	83 c8 ff             	or     $0xffffffff,%eax
        return -1;
    return idx;
}
   122af:	5b                   	pop    %ebx
   122b0:	5e                   	pop    %esi
   122b1:	5f                   	pop    %edi
   122b2:	5d                   	pop    %ebp
   122b3:	c3                   	ret    

000122b4 <bitmap_find_set>:

u32 bitmap_find_set(const struct bitmap *map, u32 idx)
{
   122b4:	55                   	push   %ebp
   122b5:	89 e5                	mov    %esp,%ebp
   122b7:	57                   	push   %edi
   122b8:	56                   	push   %esi
   122b9:	53                   	push   %ebx
   122ba:	8b 55 08             	mov    0x8(%ebp),%edx
   122bd:	8b 45 0c             	mov    0xc(%ebp),%eax
    if (idx < map->first_clear)
   122c0:	39 42 08             	cmp    %eax,0x8(%edx)
   122c3:	77 2f                	ja     122f4 <bitmap_find_set+0x40>
        return idx;
    else if (idx >= map->size)
   122c5:	8b 72 04             	mov    0x4(%edx),%esi
   122c8:	39 c6                	cmp    %eax,%esi
   122ca:	76 25                	jbe    122f1 <bitmap_find_set+0x3d>
        return -1;

    u32 offset = idx >> 3;
   122cc:	89 c3                	mov    %eax,%ebx
   122ce:	c1 eb 03             	shr    $0x3,%ebx
    u32 i = idx & 7;
   122d1:	89 c1                	mov    %eax,%ecx
   122d3:	83 e1 07             	and    $0x7,%ecx

    for (; idx < map->size && (map->data[offset] & (1 << i)) == 0; ++idx)
   122d6:	8b 3a                	mov    (%edx),%edi
   122d8:	0f b6 14 1f          	movzbl (%edi,%ebx,1),%edx
   122dc:	d3 fa                	sar    %cl,%edx
   122de:	80 e2 01             	and    $0x1,%dl
   122e1:	75 11                	jne    122f4 <bitmap_find_set+0x40>
    {
        if (++i == 8)
   122e3:	41                   	inc    %ecx
   122e4:	83 f9 08             	cmp    $0x8,%ecx
   122e7:	75 03                	jne    122ec <bitmap_find_set+0x38>
        {
            ++offset;
   122e9:	43                   	inc    %ebx
            i = 0;
   122ea:	31 c9                	xor    %ecx,%ecx
    for (; idx < map->size && (map->data[offset] & (1 << i)) == 0; ++idx)
   122ec:	40                   	inc    %eax
   122ed:	39 c6                	cmp    %eax,%esi
   122ef:	75 e7                	jne    122d8 <bitmap_find_set+0x24>
        return -1;
   122f1:	83 c8 ff             	or     $0xffffffff,%eax
    }

    if (idx == map->size)
        return -1;
    return idx;
}
   122f4:	5b                   	pop    %ebx
   122f5:	5e                   	pop    %esi
   122f6:	5f                   	pop    %edi
   122f7:	5d                   	pop    %ebp
   122f8:	c3                   	ret    

000122f9 <cmos_read_byte>:
    print_char('\n');
}
#endif

u8 cmos_read_byte(u8 reg)
{
   122f9:	55                   	push   %ebp
   122fa:	89 e5                	mov    %esp,%ebp
   122fc:	8b 45 08             	mov    0x8(%ebp),%eax
// void write_cr4(u32 cr4);

inline static u32 read_eflags(void)
{
	u32 eflags;
	__asm__ __volatile__("pushfl\n\t"
   122ff:	9c                   	pushf  
   12300:	5a                   	pop    %edx
						 : "memory");
}

inline static void disable(void)
{
	__asm__ __volatile__("cli\n" ::
   12301:	fa                   	cli    
    __asm__ volatile("outb %0, %1"
   12302:	e6 70                	out    %al,$0x70
    __asm__ volatile("inb %1, %0"
   12304:	e4 71                	in     $0x71,%al
	__asm__ __volatile__("pushfl\n\t"
   12306:	9c                   	pushf  
   12307:	59                   	pop    %ecx
    u32 save_eflags = read_eflags();
    disable();
    port_write_byte(CMOS_PORT_REG, reg);
    u8 data = port_read_byte(CMOS_PORT_DATA);
    write_eflags(read_eflags() | (save_eflags & EFLAGS_IF));
   12308:	81 e2 00 02 00 00    	and    $0x200,%edx
   1230e:	09 ca                	or     %ecx,%edx
	__asm__ __volatile__("pushl %0\n\t"
   12310:	52                   	push   %edx
   12311:	9d                   	popf   
    return data;
}
   12312:	5d                   	pop    %ebp
   12313:	c3                   	ret    

00012314 <cmos_write_byte>:

void cmos_write_byte(u8 reg, u8 val)
{
   12314:	55                   	push   %ebp
   12315:	89 e5                	mov    %esp,%ebp
   12317:	8b 45 08             	mov    0x8(%ebp),%eax
   1231a:	8b 4d 0c             	mov    0xc(%ebp),%ecx
	__asm__ __volatile__("pushfl\n\t"
   1231d:	9c                   	pushf  
   1231e:	5a                   	pop    %edx
	__asm__ __volatile__("cli\n" ::
   1231f:	fa                   	cli    
    __asm__ volatile("outb %0, %1"
   12320:	e6 70                	out    %al,$0x70
   12322:	88 c8                	mov    %cl,%al
   12324:	e6 71                	out    %al,$0x71
	__asm__ __volatile__("pushfl\n\t"
   12326:	9c                   	pushf  
   12327:	58                   	pop    %eax
    u32 save_eflags = read_eflags();
    disable();
    port_write_byte(CMOS_PORT_REG, reg);
    port_write_byte(CMOS_PORT_DATA, val);
    write_eflags(read_eflags() | (save_eflags & EFLAGS_IF));
   12328:	81 e2 00 02 00 00    	and    $0x200,%edx
   1232e:	09 c2                	or     %eax,%edx
	__asm__ __volatile__("pushl %0\n\t"
   12330:	52                   	push   %edx
   12331:	9d                   	popf   
}
   12332:	5d                   	pop    %ebp
   12333:	c3                   	ret    

00012334 <cmos_mask>:

void cmos_mask(u8 reg, u8 on, u8 off)
{
   12334:	55                   	push   %ebp
   12335:	89 e5                	mov    %esp,%ebp
   12337:	57                   	push   %edi
   12338:	56                   	push   %esi
   12339:	53                   	push   %ebx
   1233a:	83 ec 18             	sub    $0x18,%esp
   1233d:	8b 75 0c             	mov    0xc(%ebp),%esi
   12340:	8b 5d 10             	mov    0x10(%ebp),%ebx
    u8 new_val = (cmos_read_byte(reg) & ~off) | on;
   12343:	0f b6 7d 08          	movzbl 0x8(%ebp),%edi
   12347:	57                   	push   %edi
   12348:	e8 ac ff ff ff       	call   122f9 <cmos_read_byte>
    cmos_write_byte(reg, new_val);
   1234d:	83 c4 10             	add    $0x10,%esp
    u8 new_val = (cmos_read_byte(reg) & ~off) | on;
   12350:	f7 d3                	not    %ebx
   12352:	21 c3                	and    %eax,%ebx
   12354:	09 f3                	or     %esi,%ebx
    cmos_write_byte(reg, new_val);
   12356:	0f b6 db             	movzbl %bl,%ebx
   12359:	89 5d 0c             	mov    %ebx,0xc(%ebp)
   1235c:	89 7d 08             	mov    %edi,0x8(%ebp)
}
   1235f:	8d 65 f4             	lea    -0xc(%ebp),%esp
   12362:	5b                   	pop    %ebx
   12363:	5e                   	pop    %esi
   12364:	5f                   	pop    %edi
   12365:	5d                   	pop    %ebp
    cmos_write_byte(reg, new_val);
   12366:	eb ac                	jmp    12314 <cmos_write_byte>

00012368 <cmos_setup>:
{
   12368:	55                   	push   %ebp
   12369:	89 e5                	mov    %esp,%ebp
   1236b:	83 ec 0c             	sub    $0xc,%esp
    cmos_mask(CMOS_REG_STATUS_A, 0x26, 0x7f);
   1236e:	6a 7f                	push   $0x7f
   12370:	6a 26                	push   $0x26
   12372:	6a 0a                	push   $0xa
   12374:	e8 bb ff ff ff       	call   12334 <cmos_mask>
    cmos_mask(CMOS_REG_STATUS_B, 0x2, 0xff); // 24-hour BCD
   12379:	83 c4 0c             	add    $0xc,%esp
   1237c:	68 ff 00 00 00       	push   $0xff
   12381:	6a 02                	push   $0x2
   12383:	6a 0b                	push   $0xb
   12385:	e8 aa ff ff ff       	call   12334 <cmos_mask>
    u8 status_b = cmos_read_byte(CMOS_REG_STATUS_B);
   1238a:	c7 04 24 0b 00 00 00 	movl   $0xb,(%esp)
   12391:	e8 63 ff ff ff       	call   122f9 <cmos_read_byte>
    _rtc_bcd_mode = (status_b & 0x4) == 0;
   12396:	88 c2                	mov    %al,%dl
   12398:	c0 ea 02             	shr    $0x2,%dl
   1239b:	83 f2 01             	xor    $0x1,%edx
   1239e:	83 e2 01             	and    $0x1,%edx
   123a1:	88 15 66 aa 01 00    	mov    %dl,0x1aa66
    _rtc_12hour_format = (status_b & 0x2) == 0;
   123a7:	d0 e8                	shr    %al
   123a9:	83 f0 01             	xor    $0x1,%eax
   123ac:	83 e0 01             	and    $0x1,%eax
   123af:	a2 65 aa 01 00       	mov    %al,0x1aa65
    cmos_read_byte(CMOS_REG_STATUS_C);
   123b4:	c7 04 24 0c 00 00 00 	movl   $0xc,(%esp)
   123bb:	e8 39 ff ff ff       	call   122f9 <cmos_read_byte>
    cmos_read_byte(CMOS_REG_STATUS_D);
   123c0:	c7 04 24 0d 00 00 00 	movl   $0xd,(%esp)
   123c7:	e8 2d ff ff ff       	call   122f9 <cmos_read_byte>
}
   123cc:	83 c4 10             	add    $0x10,%esp
   123cf:	c9                   	leave  
   123d0:	c3                   	ret    

000123d1 <cmos_rtc_time>:
    return 1;
}
#endif

bool cmos_rtc_time(struct rtc_time *tm)
{
   123d1:	55                   	push   %ebp
   123d2:	89 e5                	mov    %esp,%ebp
   123d4:	57                   	push   %edi
   123d5:	56                   	push   %esi
   123d6:	53                   	push   %ebx
   123d7:	83 ec 0c             	sub    $0xc,%esp
   123da:	8b 5d 08             	mov    0x8(%ebp),%ebx
    for (u8 times = 100; cmos_read_byte(CMOS_REG_STATUS_A) & CMOS_REG_STATUS_A_UIP && times; --times)
   123dd:	bf 64 00 00 00       	mov    $0x64,%edi
   123e2:	83 ec 0c             	sub    $0xc,%esp
   123e5:	6a 0a                	push   $0xa
   123e7:	e8 0d ff ff ff       	call   122f9 <cmos_read_byte>
   123ec:	83 c4 10             	add    $0x10,%esp
   123ef:	89 fa                	mov    %edi,%edx
   123f1:	84 d2                	test   %dl,%dl
   123f3:	0f 95 c2             	setne  %dl
   123f6:	c0 e8 07             	shr    $0x7,%al
   123f9:	20 c2                	and    %al,%dl
   123fb:	89 d6                	mov    %edx,%esi
   123fd:	74 10                	je     1240f <cmos_rtc_time+0x3e>
        delay_ms(10);
   123ff:	83 ec 0c             	sub    $0xc,%esp
   12402:	6a 0a                	push   $0xa
   12404:	e8 8c 2a 00 00       	call   14e95 <delay_ms>
    for (u8 times = 100; cmos_read_byte(CMOS_REG_STATUS_A) & CMOS_REG_STATUS_A_UIP && times; --times)
   12409:	4f                   	dec    %edi
   1240a:	83 c4 10             	add    $0x10,%esp
   1240d:	eb d3                	jmp    123e2 <cmos_rtc_time+0x11>
    return (cmos_read_byte(CMOS_REG_STATUS_A) & CMOS_REG_STATUS_A_UIP) == 0;
   1240f:	83 ec 0c             	sub    $0xc,%esp
   12412:	6a 0a                	push   $0xa
   12414:	e8 e0 fe ff ff       	call   122f9 <cmos_read_byte>
    u8 century;
    // cmos_mask(CMOS_REG_STATUS_B, 0x80, 0);

    if (!cmos_rtc_wait())
   12419:	83 c4 10             	add    $0x10,%esp
   1241c:	84 c0                	test   %al,%al
   1241e:	0f 88 28 01 00 00    	js     1254c <cmos_rtc_time+0x17b>
        return false;

    tm->seconds = cmos_read_byte(CMOS_RTC_SECONDS);
   12424:	83 ec 0c             	sub    $0xc,%esp
   12427:	6a 00                	push   $0x0
   12429:	e8 cb fe ff ff       	call   122f9 <cmos_read_byte>
   1242e:	88 43 06             	mov    %al,0x6(%ebx)
    tm->minutes = cmos_read_byte(CMOS_RTC_MINUTES);
   12431:	c7 04 24 02 00 00 00 	movl   $0x2,(%esp)
   12438:	e8 bc fe ff ff       	call   122f9 <cmos_read_byte>
   1243d:	88 43 05             	mov    %al,0x5(%ebx)
    tm->hours = cmos_read_byte(CMOS_RTC_HOURS);
   12440:	c7 04 24 04 00 00 00 	movl   $0x4,(%esp)
   12447:	e8 ad fe ff ff       	call   122f9 <cmos_read_byte>
   1244c:	88 43 04             	mov    %al,0x4(%ebx)
    tm->day = cmos_read_byte(CMOS_RTC_DAY);
   1244f:	c7 04 24 07 00 00 00 	movl   $0x7,(%esp)
   12456:	e8 9e fe ff ff       	call   122f9 <cmos_read_byte>
   1245b:	88 43 03             	mov    %al,0x3(%ebx)
    tm->month = cmos_read_byte(CMOS_RTC_MONTH);
   1245e:	c7 04 24 08 00 00 00 	movl   $0x8,(%esp)
   12465:	e8 8f fe ff ff       	call   122f9 <cmos_read_byte>
   1246a:	88 43 02             	mov    %al,0x2(%ebx)
    tm->year = cmos_read_byte(CMOS_RTC_YEAR);
   1246d:	c7 04 24 09 00 00 00 	movl   $0x9,(%esp)
   12474:	e8 80 fe ff ff       	call   122f9 <cmos_read_byte>
   12479:	0f b6 c0             	movzbl %al,%eax
   1247c:	66 89 03             	mov    %ax,(%ebx)
    century = cmos_read_byte(CMOS_RTC_CENTURY);
   1247f:	c7 04 24 32 00 00 00 	movl   $0x32,(%esp)
   12486:	e8 6e fe ff ff       	call   122f9 <cmos_read_byte>
   1248b:	89 c7                	mov    %eax,%edi

    if (_rtc_12hour_format)
   1248d:	83 c4 10             	add    $0x10,%esp
   12490:	80 3d 65 aa 01 00 00 	cmpb   $0x0,0x1aa65
   12497:	74 10                	je     124a9 <cmos_rtc_time+0xd8>
    {
        print_str("\n[CMOS] unexpecting 12-hour format!\n");
   12499:	83 ec 0c             	sub    $0xc,%esp
   1249c:	68 c5 80 01 00       	push   $0x180c5
   124a1:	e8 0d 0a 00 00       	call   12eb3 <print_str>
   124a6:	83 c4 10             	add    $0x10,%esp
        // pm = tm->hours & 0x80;
        // tm->hours &= 0x7f;
    }

    if (_rtc_bcd_mode)
   124a9:	0f b6 35 66 aa 01 00 	movzbl 0x1aa66,%esi
   124b0:	89 f0                	mov    %esi,%eax
   124b2:	84 c0                	test   %al,%al
   124b4:	0f 84 8d 00 00 00    	je     12547 <cmos_rtc_time+0x176>
    {
        tm->seconds = BCD2BIN(tm->seconds);
   124ba:	8a 4b 06             	mov    0x6(%ebx),%cl
   124bd:	88 c8                	mov    %cl,%al
   124bf:	c0 e8 04             	shr    $0x4,%al
   124c2:	b2 0a                	mov    $0xa,%dl
   124c4:	f6 e2                	mul    %dl
   124c6:	83 e1 0f             	and    $0xf,%ecx
   124c9:	01 c1                	add    %eax,%ecx
   124cb:	88 4b 06             	mov    %cl,0x6(%ebx)
        tm->minutes = BCD2BIN(tm->minutes);
   124ce:	8a 4b 05             	mov    0x5(%ebx),%cl
   124d1:	88 c8                	mov    %cl,%al
   124d3:	c0 e8 04             	shr    $0x4,%al
   124d6:	f6 e2                	mul    %dl
   124d8:	83 e1 0f             	and    $0xf,%ecx
   124db:	01 c1                	add    %eax,%ecx
   124dd:	88 4b 05             	mov    %cl,0x5(%ebx)
        tm->hours = BCD2BIN(tm->hours);
   124e0:	8a 4b 04             	mov    0x4(%ebx),%cl
   124e3:	88 c8                	mov    %cl,%al
   124e5:	c0 e8 04             	shr    $0x4,%al
   124e8:	f6 e2                	mul    %dl
   124ea:	83 e1 0f             	and    $0xf,%ecx
   124ed:	01 c1                	add    %eax,%ecx
   124ef:	88 4b 04             	mov    %cl,0x4(%ebx)
        tm->day = BCD2BIN(tm->day);
   124f2:	8a 4b 03             	mov    0x3(%ebx),%cl
   124f5:	88 c8                	mov    %cl,%al
   124f7:	c0 e8 04             	shr    $0x4,%al
   124fa:	f6 e2                	mul    %dl
   124fc:	83 e1 0f             	and    $0xf,%ecx
   124ff:	01 c1                	add    %eax,%ecx
   12501:	88 4b 03             	mov    %cl,0x3(%ebx)
        tm->month = BCD2BIN(tm->month);
   12504:	8a 4b 02             	mov    0x2(%ebx),%cl
   12507:	88 c8                	mov    %cl,%al
   12509:	c0 e8 04             	shr    $0x4,%al
   1250c:	f6 e2                	mul    %dl
   1250e:	83 e1 0f             	and    $0xf,%ecx
   12511:	01 c8                	add    %ecx,%eax
   12513:	88 43 02             	mov    %al,0x2(%ebx)
        tm->year = BCD2BIN(century) * 100 + BCD2BIN(tm->year);
   12516:	66 8b 13             	mov    (%ebx),%dx
   12519:	89 f8                	mov    %edi,%eax
   1251b:	c0 e8 04             	shr    $0x4,%al
   1251e:	0f b6 c0             	movzbl %al,%eax
   12521:	6b c8 0a             	imul   $0xa,%eax,%ecx
   12524:	83 e7 0f             	and    $0xf,%edi
   12527:	01 cf                	add    %ecx,%edi
   12529:	66 6b ff 64          	imul   $0x64,%di,%di
   1252d:	89 d0                	mov    %edx,%eax
   1252f:	66 c1 e8 04          	shr    $0x4,%ax
   12533:	83 e0 0f             	and    $0xf,%eax
   12536:	66 6b c8 0a          	imul   $0xa,%ax,%cx
   1253a:	83 e2 0f             	and    $0xf,%edx
   1253d:	8d 04 11             	lea    (%ecx,%edx,1),%eax
   12540:	01 c7                	add    %eax,%edi
   12542:	66 89 3b             	mov    %di,(%ebx)
   12545:	eb 05                	jmp    1254c <cmos_rtc_time+0x17b>
    }

    return true;
   12547:	be 01 00 00 00       	mov    $0x1,%esi
        // tm->hours %= 24;
        // }
    }
    return ret;
#endif
}
   1254c:	89 f0                	mov    %esi,%eax
   1254e:	8d 65 f4             	lea    -0xc(%ebp),%esp
   12551:	5b                   	pop    %ebx
   12552:	5e                   	pop    %esi
   12553:	5f                   	pop    %edi
   12554:	5d                   	pop    %ebp
   12555:	c3                   	ret    

00012556 <read_eflags>:
	__asm__ __volatile__("pushfl\n\t"
   12556:	9c                   	pushf  
   12557:	58                   	pop    %eax
}
   12558:	c3                   	ret    

00012559 <update>:
// static void clear_rows(u32 start, u32 end);
// static void print_int(u32 n, u32 base, u32 width);

static void update(void)
{
	if (_GUI_mode)
   12559:	80 3d b4 b2 01 00 00 	cmpb   $0x0,0x1b2b4
   12560:	0f 84 c4 00 00 00    	je     1262a <update+0xd1>
{
   12566:	55                   	push   %ebp
   12567:	89 e5                	mov    %esp,%ebp
   12569:	57                   	push   %edi
   1256a:	56                   	push   %esi
   1256b:	53                   	push   %ebx
   1256c:	83 ec 1c             	sub    $0x1c,%esp
	{
		u32 save_eflags = read_eflags();
   1256f:	e8 e2 ff ff ff       	call   12556 <read_eflags>
   12574:	89 45 e4             	mov    %eax,-0x1c(%ebp)
	__asm__ __volatile__("cli\n" ::
   12577:	fa                   	cli    
		disable();

		void *ptr = map_mem(_show_mem_base, _show_mem_size);
   12578:	52                   	push   %edx
   12579:	52                   	push   %edx
   1257a:	ff 35 b0 b2 01 00    	push   0x1b2b0
   12580:	ff 35 d0 b5 01 00    	push   0x1b5d0
   12586:	e8 b7 2e 00 00       	call   15442 <map_mem>
   1258b:	89 c6                	mov    %eax,%esi
		u32 offset = 0;
		for (u16 row = 0; row < _max_rows; ++row)
   1258d:	83 c4 10             	add    $0x10,%esp
   12590:	31 ff                	xor    %edi,%edi
		u32 offset = 0;
   12592:	31 db                	xor    %ebx,%ebx
		for (u16 row = 0; row < _max_rows; ++row)
   12594:	66 3b 3d c6 b5 01 00 	cmp    0x1b5c6,%di
   1259b:	73 67                	jae    12604 <update+0xab>
		{
			if (!_line_modified[row])
   1259d:	0f b7 d7             	movzwl %di,%edx
   125a0:	80 ba c0 b2 01 00 00 	cmpb   $0x0,0x1b2c0(%edx)
   125a7:	75 0e                	jne    125b7 <update+0x5e>
			{
				offset += _show_Bpl * 16;
   125a9:	0f b7 05 c0 b5 01 00 	movzwl 0x1b5c0,%eax
   125b0:	c1 e0 04             	shl    $0x4,%eax
   125b3:	01 c3                	add    %eax,%ebx
				continue;
   125b5:	eb 4a                	jmp    12601 <update+0xa8>
			}

			_line_modified[row] = false;
   125b7:	c6 82 c0 b2 01 00 00 	movb   $0x0,0x1b2c0(%edx)
   125be:	c6 45 e3 10          	movb   $0x10,-0x1d(%ebp)
			for (u8 y = 0; y < 16; ++y) // each font are 16 pixel height
			{
				u32 size = (u32)8 * _line_count[row] * _show_Bpp;
				memcpy(ptr + offset, _show_buffer + offset, size);
   125c2:	50                   	push   %eax
				u32 size = (u32)8 * _line_count[row] * _show_Bpp;
   125c3:	0f b7 84 12 c0 b3 01 	movzwl 0x1b3c0(%edx,%edx,1),%eax
   125ca:	00 
   125cb:	89 55 dc             	mov    %edx,-0x24(%ebp)
   125ce:	0f b7 0d c2 b5 01 00 	movzwl 0x1b5c2,%ecx
   125d5:	0f af c1             	imul   %ecx,%eax
   125d8:	c1 e0 03             	shl    $0x3,%eax
				memcpy(ptr + offset, _show_buffer + offset, size);
   125db:	50                   	push   %eax
   125dc:	a1 a0 b2 01 00       	mov    0x1b2a0,%eax
   125e1:	01 d8                	add    %ebx,%eax
   125e3:	50                   	push   %eax
   125e4:	8d 04 1e             	lea    (%esi,%ebx,1),%eax
   125e7:	50                   	push   %eax
   125e8:	e8 56 3e 00 00       	call   16443 <memcpy>
				offset += _show_Bpl;
   125ed:	0f b7 05 c0 b5 01 00 	movzwl 0x1b5c0,%eax
   125f4:	01 c3                	add    %eax,%ebx
			for (u8 y = 0; y < 16; ++y) // each font are 16 pixel height
   125f6:	83 c4 10             	add    $0x10,%esp
   125f9:	fe 4d e3             	decb   -0x1d(%ebp)
   125fc:	8b 55 dc             	mov    -0x24(%ebp),%edx
   125ff:	75 c1                	jne    125c2 <update+0x69>
		for (u16 row = 0; row < _max_rows; ++row)
   12601:	47                   	inc    %edi
   12602:	eb 90                	jmp    12594 <update+0x3b>
			}
		}

		unmap_mem(ptr);
   12604:	83 ec 0c             	sub    $0xc,%esp
   12607:	56                   	push   %esi
   12608:	e8 95 30 00 00       	call   156a2 <unmap_mem>
		write_eflags(read_eflags() | (save_eflags & EFLAGS_IF));
   1260d:	e8 44 ff ff ff       	call   12556 <read_eflags>
   12612:	8b 55 e4             	mov    -0x1c(%ebp),%edx
   12615:	81 e2 00 02 00 00    	and    $0x200,%edx
   1261b:	09 d0                	or     %edx,%eax
	__asm__ __volatile__("pushl %0\n\t"
   1261d:	50                   	push   %eax
   1261e:	9d                   	popf   
}
   1261f:	83 c4 10             	add    $0x10,%esp
	}
}
   12622:	8d 65 f4             	lea    -0xc(%ebp),%esp
   12625:	5b                   	pop    %ebx
   12626:	5e                   	pop    %esi
   12627:	5f                   	pop    %edi
   12628:	5d                   	pop    %ebp
   12629:	c3                   	ret    
   1262a:	c3                   	ret    

0001262b <clear_line>:
		write_eflags(read_eflags() | (save_eflags & EFLAGS_IF));
	}
}

static void clear_line(u16 row, u16 begin)
{
   1262b:	55                   	push   %ebp
   1262c:	89 e5                	mov    %esp,%ebp
   1262e:	57                   	push   %edi
   1262f:	56                   	push   %esi
   12630:	53                   	push   %ebx
   12631:	83 ec 2c             	sub    $0x2c,%esp
   12634:	89 55 e4             	mov    %edx,-0x1c(%ebp)
	if (_line_count[row] <= begin)
   12637:	0f b7 d8             	movzwl %ax,%ebx
   1263a:	8b 45 e4             	mov    -0x1c(%ebp),%eax
   1263d:	66 39 84 1b c0 b3 01 	cmp    %ax,0x1b3c0(%ebx,%ebx,1)
   12644:	00 
   12645:	0f 86 12 01 00 00    	jbe    1275d <clear_line+0x132>
		return;

	u32 save_eflags = read_eflags();
   1264b:	e8 06 ff ff ff       	call   12556 <read_eflags>
   12650:	89 45 dc             	mov    %eax,-0x24(%ebp)
	__asm__ __volatile__("cli\n" ::
   12653:	fa                   	cli    
	disable();

	if (_GUI_mode)
	{
		void *ptr = map_mem(_show_mem_base + (u32)row * _show_Bpl * 16, _show_Bpl * 16);
		u32 offset = (u32)begin * _show_Bpp * 8;
   12654:	0f b7 7d e4          	movzwl -0x1c(%ebp),%edi
	if (_GUI_mode)
   12658:	80 3d b4 b2 01 00 00 	cmpb   $0x0,0x1b2b4
   1265f:	0f 84 95 00 00 00    	je     126fa <clear_line+0xcf>
		void *ptr = map_mem(_show_mem_base + (u32)row * _show_Bpl * 16, _show_Bpl * 16);
   12665:	52                   	push   %edx
   12666:	52                   	push   %edx
   12667:	0f b7 05 c0 b5 01 00 	movzwl 0x1b5c0,%eax
   1266e:	89 c2                	mov    %eax,%edx
   12670:	c1 e2 04             	shl    $0x4,%edx
   12673:	52                   	push   %edx
   12674:	0f af c3             	imul   %ebx,%eax
   12677:	c1 e0 04             	shl    $0x4,%eax
   1267a:	03 05 d0 b5 01 00    	add    0x1b5d0,%eax
   12680:	50                   	push   %eax
   12681:	e8 bc 2d 00 00       	call   15442 <map_mem>
		u32 offset = (u32)begin * _show_Bpp * 8;
   12686:	0f b7 35 c2 b5 01 00 	movzwl 0x1b5c2,%esi
   1268d:	0f af f7             	imul   %edi,%esi
   12690:	c1 e6 03             	shl    $0x3,%esi
		// ptr += (u32)row * _show_Bpl * 16 + (u32)begin * _show_Bpp * 8;
		for (u8 y = 0; y < 16; ++y) // each font are 16 pixel height
		{
			u8 *tmp = ptr + offset;
			for (u32 x = (u32)begin * 8; x < _line_count[row] * 8; ++x) // each row are _max_colums font or _max_colums*8 pixel
   12693:	c1 e7 03             	shl    $0x3,%edi
   12696:	89 7d d8             	mov    %edi,-0x28(%ebp)
   12699:	83 c4 10             	add    $0x10,%esp
   1269c:	c6 45 e3 10          	movb   $0x10,-0x1d(%ebp)
			u8 *tmp = ptr + offset;
   126a0:	8d 0c 30             	lea    (%eax,%esi,1),%ecx
			for (u32 x = (u32)begin * 8; x < _line_count[row] * 8; ++x) // each row are _max_colums font or _max_colums*8 pixel
   126a3:	8b 7d d8             	mov    -0x28(%ebp),%edi
   126a6:	0f b7 94 1b c0 b3 01 	movzwl 0x1b3c0(%ebx,%ebx,1),%edx
   126ad:	00 
   126ae:	c1 e2 03             	shl    $0x3,%edx
   126b1:	39 fa                	cmp    %edi,%edx
   126b3:	76 29                	jbe    126de <clear_line+0xb3>
   126b5:	89 45 d0             	mov    %eax,-0x30(%ebp)
			{
				// for (u8 i = 0; i < 8; ++i) // each font are 8 pixel width
				// {
				// memcpy(ptr, &_show_bg, _show_Bpp);
				memcpy(tmp, &_show_bg, 3);
   126b8:	50                   	push   %eax
   126b9:	6a 03                	push   $0x3
   126bb:	68 a8 b2 01 00       	push   $0x1b2a8
   126c0:	51                   	push   %ecx
   126c1:	89 4d d4             	mov    %ecx,-0x2c(%ebp)
   126c4:	e8 7a 3d 00 00       	call   16443 <memcpy>
				tmp += _show_Bpp;
   126c9:	0f b7 15 c2 b5 01 00 	movzwl 0x1b5c2,%edx
   126d0:	8b 4d d4             	mov    -0x2c(%ebp),%ecx
   126d3:	01 d1                	add    %edx,%ecx
			for (u32 x = (u32)begin * 8; x < _line_count[row] * 8; ++x) // each row are _max_colums font or _max_colums*8 pixel
   126d5:	47                   	inc    %edi
   126d6:	83 c4 10             	add    $0x10,%esp
   126d9:	8b 45 d0             	mov    -0x30(%ebp),%eax
   126dc:	eb c8                	jmp    126a6 <clear_line+0x7b>
				// for (u8 i = 0; i < _show_Bpp; ++i)
				// *ptr++ = (&_show_bg)[i];
				// }
			}
			offset += _show_Bpl;
   126de:	0f b7 15 c0 b5 01 00 	movzwl 0x1b5c0,%edx
   126e5:	01 d6                	add    %edx,%esi
		for (u8 y = 0; y < 16; ++y) // each font are 16 pixel height
   126e7:	fe 4d e3             	decb   -0x1d(%ebp)
   126ea:	75 b4                	jne    126a0 <clear_line+0x75>
			// ptr += _show_Bpl;
		}
		unmap_mem(ptr);
   126ec:	83 ec 0c             	sub    $0xc,%esp
   126ef:	50                   	push   %eax
   126f0:	e8 ad 2f 00 00       	call   156a2 <unmap_mem>
   126f5:	83 c4 10             	add    $0x10,%esp
   126f8:	eb 3f                	jmp    12739 <clear_line+0x10e>
	}
	else
	{
		u8 *ptr = _show_buffer + (u32)row * _show_Bpl + (u32)begin * _show_Bpp;
   126fa:	0f b7 0d c2 b5 01 00 	movzwl 0x1b5c2,%ecx
   12701:	0f b7 05 c0 b5 01 00 	movzwl 0x1b5c0,%eax
   12708:	0f af c3             	imul   %ebx,%eax
   1270b:	89 ca                	mov    %ecx,%edx
   1270d:	0f af d7             	imul   %edi,%edx
   12710:	01 d0                	add    %edx,%eax
   12712:	03 05 a0 b2 01 00    	add    0x1b2a0,%eax
		// ptr += (u32)row * _show_Bpl + (u32)begin * _show_Bpp;
		for (u32 i = begin; i < _line_count[row]; ++i)
		{
			*(u16 *)ptr = ((u16)_show_color << 8) | ' ';
   12718:	0f b6 15 b5 b2 01 00 	movzbl 0x1b2b5,%edx
   1271f:	c1 e2 08             	shl    $0x8,%edx
   12722:	83 ca 20             	or     $0x20,%edx
		for (u32 i = begin; i < _line_count[row]; ++i)
   12725:	0f b7 b4 1b c0 b3 01 	movzwl 0x1b3c0(%ebx,%ebx,1),%esi
   1272c:	00 
   1272d:	39 fe                	cmp    %edi,%esi
   1272f:	76 08                	jbe    12739 <clear_line+0x10e>
			*(u16 *)ptr = ((u16)_show_color << 8) | ' ';
   12731:	66 89 10             	mov    %dx,(%eax)
			ptr += _show_Bpp;
   12734:	01 c8                	add    %ecx,%eax
		for (u32 i = begin; i < _line_count[row]; ++i)
   12736:	47                   	inc    %edi
   12737:	eb ec                	jmp    12725 <clear_line+0xfa>
		}
	}

	write_eflags(read_eflags() | (save_eflags & EFLAGS_IF));
   12739:	e8 18 fe ff ff       	call   12556 <read_eflags>
   1273e:	8b 55 dc             	mov    -0x24(%ebp),%edx
   12741:	81 e2 00 02 00 00    	and    $0x200,%edx
   12747:	09 d0                	or     %edx,%eax
	__asm__ __volatile__("pushl %0\n\t"
   12749:	50                   	push   %eax
   1274a:	9d                   	popf   
	_line_count[row] = count;
   1274b:	8b 45 e4             	mov    -0x1c(%ebp),%eax
   1274e:	66 89 84 1b c0 b3 01 	mov    %ax,0x1b3c0(%ebx,%ebx,1)
   12755:	00 
	_line_modified[row] = true;
   12756:	c6 83 c0 b2 01 00 01 	movb   $0x1,0x1b2c0(%ebx)

	set_line_count(row, begin);
}
   1275d:	8d 65 f4             	lea    -0xc(%ebp),%esp
   12760:	5b                   	pop    %ebx
   12761:	5e                   	pop    %esi
   12762:	5f                   	pop    %edi
   12763:	5d                   	pop    %ebp
   12764:	c3                   	ret    

00012765 <clear_rows>:

static void clear_rows(u16 start, u32 count)
{
   12765:	55                   	push   %ebp
   12766:	89 e5                	mov    %esp,%ebp
   12768:	57                   	push   %edi
   12769:	56                   	push   %esi
   1276a:	53                   	push   %ebx
   1276b:	83 ec 0c             	sub    $0xc,%esp
   1276e:	89 d6                	mov    %edx,%esi
   12770:	89 c7                	mov    %eax,%edi
	for (u32 i = 0; i < count; ++i)
   12772:	31 db                	xor    %ebx,%ebx
   12774:	39 f3                	cmp    %esi,%ebx
   12776:	74 10                	je     12788 <clear_rows+0x23>
		clear_line(start + i, 0);
   12778:	8d 04 1f             	lea    (%edi,%ebx,1),%eax
   1277b:	0f b7 c0             	movzwl %ax,%eax
   1277e:	31 d2                	xor    %edx,%edx
   12780:	e8 a6 fe ff ff       	call   1262b <clear_line>
	for (u32 i = 0; i < count; ++i)
   12785:	43                   	inc    %ebx
   12786:	eb ec                	jmp    12774 <clear_rows+0xf>
}
   12788:	83 c4 0c             	add    $0xc,%esp
   1278b:	5b                   	pop    %ebx
   1278c:	5e                   	pop    %esi
   1278d:	5f                   	pop    %edi
   1278e:	5d                   	pop    %ebp
   1278f:	c3                   	ret    

00012790 <console_set_color>:
	printf("\nline_count=0x%x\nmax_colums=%d\nmax_rows=%d\nbpp=%d\nBpp=%d\nBpl=%d\n",
		   _line_count, _max_colums, _max_rows, _show_bpp, _show_Bpp, _show_Bpl);
}

void console_set_color(u32 bg, u32 fg)
{
   12790:	55                   	push   %ebp
   12791:	89 e5                	mov    %esp,%ebp
   12793:	56                   	push   %esi
   12794:	53                   	push   %ebx
	if (_GUI_mode)
	{
		_show_bg = bg & 0xFFFFFF;
   12795:	8b 4d 08             	mov    0x8(%ebp),%ecx
   12798:	81 e1 ff ff ff 00    	and    $0xffffff,%ecx
		_show_fg = fg & 0xFFFFFF;
   1279e:	8b 55 0c             	mov    0xc(%ebp),%edx
   127a1:	81 e2 ff ff ff 00    	and    $0xffffff,%edx
	if (_GUI_mode)
   127a7:	80 3d b4 b2 01 00 00 	cmpb   $0x0,0x1b2b4
   127ae:	74 0e                	je     127be <console_set_color+0x2e>
		_show_bg = bg & 0xFFFFFF;
   127b0:	89 0d a8 b2 01 00    	mov    %ecx,0x1b2a8
		_show_fg = fg & 0xFFFFFF;
   127b6:	89 15 a4 b2 01 00    	mov    %edx,0x1b2a4
   127bc:	eb 71                	jmp    1282f <console_set_color+0x9f>
	** KRGB-IRGB
	** K-I-
	*/
		bg &= 0xFFFFFF;
		fg &= 0xFFFFFF;
		bg = (bg >> 21 & 0x4) | (bg >> 13 & 0x2) | (bg >> 7 & 0x1);
   127be:	89 c8                	mov    %ecx,%eax
   127c0:	c1 e8 15             	shr    $0x15,%eax
   127c3:	83 e0 04             	and    $0x4,%eax
   127c6:	89 cb                	mov    %ecx,%ebx
   127c8:	c1 eb 0d             	shr    $0xd,%ebx
   127cb:	83 e3 02             	and    $0x2,%ebx
   127ce:	09 d8                	or     %ebx,%eax
   127d0:	c1 e9 07             	shr    $0x7,%ecx
   127d3:	83 e1 01             	and    $0x1,%ecx
   127d6:	09 c8                	or     %ecx,%eax
		fg = (fg >> 16 == 0xff || (fg >> 8 & 0xff) == 0xff || (fg & 0xff) == 0xff) << 3 | (fg >> 21 & 0x4) | (fg >> 13 & 0x2) | (fg >> 7 & 0x1);
   127d8:	89 d3                	mov    %edx,%ebx
   127da:	c1 eb 10             	shr    $0x10,%ebx
   127dd:	b9 01 00 00 00       	mov    $0x1,%ecx
   127e2:	81 fb ff 00 00 00    	cmp    $0xff,%ebx
   127e8:	74 1b                	je     12805 <console_set_color+0x75>
   127ea:	0f b6 de             	movzbl %dh,%ebx
   127ed:	81 fb ff 00 00 00    	cmp    $0xff,%ebx
   127f3:	74 10                	je     12805 <console_set_color+0x75>
   127f5:	0f b6 4d 0c          	movzbl 0xc(%ebp),%ecx
   127f9:	81 f9 ff 00 00 00    	cmp    $0xff,%ecx
   127ff:	0f 94 c1             	sete   %cl
   12802:	0f b6 c9             	movzbl %cl,%ecx
   12805:	89 d3                	mov    %edx,%ebx
   12807:	c1 eb 15             	shr    $0x15,%ebx
   1280a:	83 e3 04             	and    $0x4,%ebx
   1280d:	89 d6                	mov    %edx,%esi
   1280f:	c1 ee 0d             	shr    $0xd,%esi
   12812:	83 e6 02             	and    $0x2,%esi
   12815:	09 f3                	or     %esi,%ebx
   12817:	c1 ea 07             	shr    $0x7,%edx
   1281a:	83 e2 01             	and    $0x1,%edx
   1281d:	09 da                	or     %ebx,%edx
   1281f:	c1 e1 03             	shl    $0x3,%ecx
   12822:	09 ca                	or     %ecx,%edx

		_show_color = MAKE_COLOR(bg, fg);
   12824:	c1 e0 04             	shl    $0x4,%eax
   12827:	09 c2                	or     %eax,%edx
   12829:	88 15 b5 b2 01 00    	mov    %dl,0x1b2b5
		// _show_color = MAKE_COLOR(bg & 0xF, fg & 0xF);
	}
}
   1282f:	5b                   	pop    %ebx
   12830:	5e                   	pop    %esi
   12831:	5d                   	pop    %ebp
   12832:	c3                   	ret    

00012833 <console_setup>:
{
   12833:	55                   	push   %ebp
   12834:	89 e5                	mov    %esp,%ebp
   12836:	57                   	push   %edi
   12837:	56                   	push   %esi
   12838:	53                   	push   %ebx
   12839:	83 ec 1c             	sub    $0x1c,%esp
   1283c:	8b 4d 08             	mov    0x8(%ebp),%ecx
	_show_mem_base = console_info->show_mem_base;
   1283f:	8b 51 09             	mov    0x9(%ecx),%edx
   12842:	89 15 d0 b5 01 00    	mov    %edx,0x1b5d0
	_show_bpp = console_info->bpp;
   12848:	0f b6 41 13          	movzbl 0x13(%ecx),%eax
   1284c:	66 a3 c4 b5 01 00    	mov    %ax,0x1b5c4
	_show_Bpp = _show_bpp / 8;
   12852:	66 c1 e8 03          	shr    $0x3,%ax
   12856:	66 a3 c2 b5 01 00    	mov    %ax,0x1b5c2
	_show_Bpl = console_info->Bpl;
   1285c:	66 8b 71 14          	mov    0x14(%ecx),%si
   12860:	66 89 35 c0 b5 01 00 	mov    %si,0x1b5c0
	_cur_env = CONSOLE_ENV_NORMAL;
   12867:	c7 05 d8 b5 01 00 00 	movl   $0x0,0x1b5d8
   1286e:	00 00 00 
		_max_x = console_info->width;
   12871:	66 8b 59 05          	mov    0x5(%ecx),%bx
		_max_y = console_info->height;
   12875:	0f b7 41 07          	movzwl 0x7(%ecx),%eax
	if (console_info->GUI)
   12879:	80 39 00             	cmpb   $0x0,(%ecx)
   1287c:	0f 84 c8 00 00 00    	je     1294a <console_setup+0x117>
		_max_x = console_info->width;
   12882:	66 89 1d ae b2 01 00 	mov    %bx,0x1b2ae
		_max_y = console_info->height;
   12889:	66 a3 ac b2 01 00    	mov    %ax,0x1b2ac
		_max_colums = _max_x / 8;
   1288f:	66 c1 eb 03          	shr    $0x3,%bx
   12893:	66 89 1d c8 b5 01 00 	mov    %bx,0x1b5c8
		_max_rows = _max_y / 16;
   1289a:	89 c2                	mov    %eax,%edx
   1289c:	66 c1 ea 04          	shr    $0x4,%dx
   128a0:	66 89 15 c6 b5 01 00 	mov    %dx,0x1b5c6
		_show_mem_size = _show_Bpl * _max_y;
   128a7:	0f b7 ce             	movzwl %si,%ecx
   128aa:	0f af c1             	imul   %ecx,%eax
   128ad:	a3 b0 b2 01 00       	mov    %eax,0x1b2b0
		_show_buffer = alloc_page(_max_rows * 16 * _show_Bpl, normal_phy_mem);
   128b2:	53                   	push   %ebx
   128b3:	53                   	push   %ebx
   128b4:	6a 01                	push   $0x1
   128b6:	0f b7 d2             	movzwl %dx,%edx
   128b9:	0f af d1             	imul   %ecx,%edx
   128bc:	c1 e2 04             	shl    $0x4,%edx
   128bf:	52                   	push   %edx
   128c0:	e8 31 2d 00 00       	call   155f6 <alloc_page>
   128c5:	a3 a0 b2 01 00       	mov    %eax,0x1b2a0
		_GUI_mode = true;
   128ca:	c6 05 b4 b2 01 00 01 	movb   $0x1,0x1b2b4
		if (_max_rows * 16 != _max_y)
   128d1:	0f b7 05 c6 b5 01 00 	movzwl 0x1b5c6,%eax
   128d8:	c1 e0 04             	shl    $0x4,%eax
   128db:	89 c2                	mov    %eax,%edx
   128dd:	0f b7 1d ac b2 01 00 	movzwl 0x1b2ac,%ebx
   128e4:	83 c4 10             	add    $0x10,%esp
   128e7:	39 d8                	cmp    %ebx,%eax
   128e9:	74 72                	je     1295d <console_setup+0x12a>
			u32 y = _max_rows * 16, index = 0, count = (_max_y - y) * _max_x;
   128eb:	29 c3                	sub    %eax,%ebx
   128ed:	0f b7 05 ae b2 01 00 	movzwl 0x1b2ae,%eax
   128f4:	0f af d8             	imul   %eax,%ebx
			u8 *ptr = map_mem(_show_mem_base + y * _show_Bpl, count * _show_Bpp);
   128f7:	51                   	push   %ecx
   128f8:	51                   	push   %ecx
   128f9:	0f b7 05 c2 b5 01 00 	movzwl 0x1b5c2,%eax
   12900:	0f af c3             	imul   %ebx,%eax
   12903:	50                   	push   %eax
   12904:	0f b7 05 c0 b5 01 00 	movzwl 0x1b5c0,%eax
   1290b:	0f af c2             	imul   %edx,%eax
   1290e:	03 05 d0 b5 01 00    	add    0x1b5d0,%eax
   12914:	50                   	push   %eax
   12915:	e8 28 2b 00 00       	call   15442 <map_mem>
   1291a:	89 c2                	mov    %eax,%edx
				index += _show_Bpp;
   1291c:	0f b7 35 c2 b5 01 00 	movzwl 0x1b5c2,%esi
			for (u32 i = 0; i < count; ++i)
   12923:	83 c4 10             	add    $0x10,%esp
   12926:	31 c9                	xor    %ecx,%ecx
   12928:	39 d9                	cmp    %ebx,%ecx
   1292a:	74 10                	je     1293c <console_setup+0x109>
				ptr[index] = 0x00;
   1292c:	c6 00 00             	movb   $0x0,(%eax)
				ptr[index + 1] = 0xff;
   1292f:	c6 40 01 ff          	movb   $0xff,0x1(%eax)
				ptr[index + 2] = 0x00;
   12933:	c6 40 02 00          	movb   $0x0,0x2(%eax)
			for (u32 i = 0; i < count; ++i)
   12937:	41                   	inc    %ecx
   12938:	01 f0                	add    %esi,%eax
   1293a:	eb ec                	jmp    12928 <console_setup+0xf5>
			unmap_mem(ptr);
   1293c:	83 ec 0c             	sub    $0xc,%esp
   1293f:	52                   	push   %edx
   12940:	e8 5d 2d 00 00       	call   156a2 <unmap_mem>
   12945:	83 c4 10             	add    $0x10,%esp
   12948:	eb 13                	jmp    1295d <console_setup+0x12a>
		_show_buffer = (u8 *)_show_mem_base;
   1294a:	89 15 a0 b2 01 00    	mov    %edx,0x1b2a0
		_max_colums = console_info->width;
   12950:	66 89 1d c8 b5 01 00 	mov    %bx,0x1b5c8
		_max_rows = console_info->height;
   12957:	66 a3 c6 b5 01 00    	mov    %ax,0x1b5c6
	console_set_color(COLOR_NORMAL_BG, COLOR_NORMAL_FG);
   1295d:	50                   	push   %eax
   1295e:	50                   	push   %eax
   1295f:	68 d3 d3 d3 00       	push   $0xd3d3d3
   12964:	6a 00                	push   $0x0
   12966:	e8 25 fe ff ff       	call   12790 <console_set_color>
	if (_cursor_visible == visible)
   1296b:	83 c4 10             	add    $0x10,%esp
   1296e:	80 3d d4 b5 01 00 00 	cmpb   $0x0,0x1b5d4
   12975:	75 4f                	jne    129c6 <console_setup+0x193>
	_cursor_visible = visible;
   12977:	c6 05 d4 b5 01 00 01 	movb   $0x1,0x1b5d4
	if (_GUI_mode)
   1297e:	80 3d b4 b2 01 00 00 	cmpb   $0x0,0x1b2b4
   12985:	75 3f                	jne    129c6 <console_setup+0x193>
		u32 save_eflags = read_eflags();
   12987:	e8 ca fb ff ff       	call   12556 <read_eflags>
   1298c:	89 c1                	mov    %eax,%ecx
	__asm__ __volatile__("cli\n" ::
   1298e:	fa                   	cli    
   1298f:	be 0a 00 00 00       	mov    $0xa,%esi
   12994:	bf d4 03 00 00       	mov    $0x3d4,%edi
   12999:	89 f0                	mov    %esi,%eax
   1299b:	89 fa                	mov    %edi,%edx
   1299d:	ee                   	out    %al,(%dx)
    __asm__ volatile("inb %1, %0"
   1299e:	bb d5 03 00 00       	mov    $0x3d5,%ebx
   129a3:	89 da                	mov    %ebx,%edx
   129a5:	ec                   	in     (%dx),%al
   129a6:	88 45 e7             	mov    %al,-0x19(%ebp)
    __asm__ volatile("outb %0, %1"
   129a9:	89 f0                	mov    %esi,%eax
   129ab:	89 fa                	mov    %edi,%edx
   129ad:	ee                   	out    %al,(%dx)
			data &= ~CRTC_CURSOR_START_CD;
   129ae:	8a 45 e7             	mov    -0x19(%ebp),%al
   129b1:	83 e0 ef             	and    $0xffffffef,%eax
   129b4:	89 da                	mov    %ebx,%edx
   129b6:	ee                   	out    %al,(%dx)
		write_eflags(read_eflags() | (save_eflags & EFLAGS_IF));
   129b7:	e8 9a fb ff ff       	call   12556 <read_eflags>
   129bc:	81 e1 00 02 00 00    	and    $0x200,%ecx
   129c2:	09 c8                	or     %ecx,%eax
	__asm__ __volatile__("pushl %0\n\t"
   129c4:	50                   	push   %eax
   129c5:	9d                   	popf   
}
   129c6:	8d 65 f4             	lea    -0xc(%ebp),%esp
   129c9:	5b                   	pop    %ebx
   129ca:	5e                   	pop    %esi
   129cb:	5f                   	pop    %edi
   129cc:	5d                   	pop    %ebp
   129cd:	c3                   	ret    

000129ce <console_set_env>:

enum console_env console_set_env(enum console_env env)
{
   129ce:	55                   	push   %ebp
   129cf:	89 e5                	mov    %esp,%ebp
   129d1:	8b 55 08             	mov    0x8(%ebp),%edx
	if(_cur_env == env) return env;
   129d4:	a1 d8 b5 01 00       	mov    0x1b5d8,%eax
   129d9:	39 d0                	cmp    %edx,%eax
   129db:	74 06                	je     129e3 <console_set_env+0x15>

	enum console_env old = _cur_env;
	_cur_env = env;
   129dd:	89 15 d8 b5 01 00    	mov    %edx,0x1b5d8
	return old;
}
   129e3:	5d                   	pop    %ebp
   129e4:	c3                   	ret    

000129e5 <console_clear_screen>:

void console_clear_screen(void)
{
   129e5:	55                   	push   %ebp
   129e6:	89 e5                	mov    %esp,%ebp
   129e8:	83 ec 08             	sub    $0x8,%esp
	clear_rows(0, _max_rows);
   129eb:	0f b7 15 c6 b5 01 00 	movzwl 0x1b5c6,%edx
   129f2:	31 c0                	xor    %eax,%eax
   129f4:	e8 6c fd ff ff       	call   12765 <clear_rows>
	_show_x = _show_y = 0;
   129f9:	66 c7 05 ca b5 01 00 	movw   $0x0,0x1b5ca
   12a00:	00 00 
   12a02:	66 c7 05 cc b5 01 00 	movw   $0x0,0x1b5cc
   12a09:	00 00 
}
   12a0b:	c9                   	leave  
   12a0c:	c3                   	ret    

00012a0d <console_get_print_size>:

void console_get_print_size(u32 *colums, u32 *rows)
{
   12a0d:	55                   	push   %ebp
   12a0e:	89 e5                	mov    %esp,%ebp
	*colums = _max_colums;
   12a10:	0f b7 15 c8 b5 01 00 	movzwl 0x1b5c8,%edx
   12a17:	8b 45 08             	mov    0x8(%ebp),%eax
   12a1a:	89 10                	mov    %edx,(%eax)
	*rows = _max_rows;
   12a1c:	0f b7 15 c6 b5 01 00 	movzwl 0x1b5c6,%edx
   12a23:	8b 45 0c             	mov    0xc(%ebp),%eax
   12a26:	89 10                	mov    %edx,(%eax)
}
   12a28:	5d                   	pop    %ebp
   12a29:	c3                   	ret    

00012a2a <console_get_size>:

void console_get_size(u32 *width, u32 *height)
{
   12a2a:	55                   	push   %ebp
   12a2b:	89 e5                	mov    %esp,%ebp
   12a2d:	8b 55 08             	mov    0x8(%ebp),%edx
   12a30:	8b 45 0c             	mov    0xc(%ebp),%eax
	if (_GUI_mode)
   12a33:	80 3d b4 b2 01 00 00 	cmpb   $0x0,0x1b2b4
   12a3a:	74 12                	je     12a4e <console_get_size+0x24>
	{
		*width = _max_x;
   12a3c:	0f b7 0d ae b2 01 00 	movzwl 0x1b2ae,%ecx
   12a43:	89 0a                	mov    %ecx,(%edx)
		*height = _max_y;
   12a45:	0f b7 15 ac b2 01 00 	movzwl 0x1b2ac,%edx
   12a4c:	eb 10                	jmp    12a5e <console_get_size+0x34>
	*colums = _max_colums;
   12a4e:	0f b7 0d c8 b5 01 00 	movzwl 0x1b5c8,%ecx
   12a55:	89 0a                	mov    %ecx,(%edx)
	*rows = _max_rows;
   12a57:	0f b7 15 c6 b5 01 00 	movzwl 0x1b5c6,%edx
   12a5e:	89 10                	mov    %edx,(%eax)
	}
	else
	{
		console_get_print_size(width, height);
	}
}
   12a60:	5d                   	pop    %ebp
   12a61:	c3                   	ret    

00012a62 <print_char>:

void print_char(char c)
{
   12a62:	55                   	push   %ebp
   12a63:	89 e5                	mov    %esp,%ebp
   12a65:	57                   	push   %edi
   12a66:	56                   	push   %esi
   12a67:	53                   	push   %ebx
   12a68:	83 ec 2c             	sub    $0x2c,%esp
   12a6b:	8b 5d 08             	mov    0x8(%ebp),%ebx
   12a6e:	88 d8                	mov    %bl,%al
	bool do_self = !_have_parent;
	if (do_self)
   12a70:	8a 0d b6 b2 01 00    	mov    0x1b2b6,%cl
   12a76:	80 f1 01             	xor    $0x1,%cl
   12a79:	88 4d e3             	mov    %cl,-0x1d(%ebp)
   12a7c:	74 07                	je     12a85 <print_char+0x23>
		_have_parent = true;
   12a7e:	c6 05 b6 b2 01 00 01 	movb   $0x1,0x1b2b6
	if (c == '\r' || c == '\n')
	{
		_show_x = 0;
		if (c == '\n')
		{
			++_show_y;
   12a85:	0f b7 35 ca b5 01 00 	movzwl 0x1b5ca,%esi
	if (c == '\r' || c == '\n')
   12a8c:	80 fb 0a             	cmp    $0xa,%bl
   12a8f:	74 05                	je     12a96 <print_char+0x34>
   12a91:	80 fb 0d             	cmp    $0xd,%bl
   12a94:	75 1f                	jne    12ab5 <print_char+0x53>
		_show_x = 0;
   12a96:	66 c7 05 cc b5 01 00 	movw   $0x0,0x1b5cc
   12a9d:	00 00 
		if (c == '\n')
   12a9f:	80 fb 0a             	cmp    $0xa,%bl
   12aa2:	0f 85 3f 01 00 00    	jne    12be7 <print_char+0x185>
			++_show_y;
   12aa8:	46                   	inc    %esi
   12aa9:	66 89 35 ca b5 01 00 	mov    %si,0x1b5ca
   12ab0:	e9 32 01 00 00       	jmp    12be7 <print_char+0x185>
		}
	}
	else if (c == '\b' && _show_x)
   12ab5:	0f b7 0d cc b5 01 00 	movzwl 0x1b5cc,%ecx
   12abc:	80 fb 08             	cmp    $0x8,%bl
   12abf:	75 12                	jne    12ad3 <print_char+0x71>
   12ac1:	66 85 c9             	test   %cx,%cx
   12ac4:	74 3d                	je     12b03 <print_char+0xa1>
	{
		--_show_x;
   12ac6:	49                   	dec    %ecx
   12ac7:	66 89 0d cc b5 01 00 	mov    %cx,0x1b5cc
   12ace:	e9 14 01 00 00       	jmp    12be7 <print_char+0x185>
		// --_line_count[_show_y];
	}
	else
	{
		if (c == '\t')
   12ad3:	80 fb 09             	cmp    $0x9,%bl
   12ad6:	75 23                	jne    12afb <print_char+0x99>
		{
			_show_x += MIN(_max_colums - _show_x, 4);
   12ad8:	0f b7 05 c8 b5 01 00 	movzwl 0x1b5c8,%eax
   12adf:	0f b7 d1             	movzwl %cx,%edx
   12ae2:	29 d0                	sub    %edx,%eax
   12ae4:	83 f8 04             	cmp    $0x4,%eax
   12ae7:	7e 05                	jle    12aee <print_char+0x8c>
   12ae9:	b8 04 00 00 00       	mov    $0x4,%eax
   12aee:	01 c8                	add    %ecx,%eax
   12af0:	66 a3 cc b5 01 00    	mov    %ax,0x1b5cc
   12af6:	e9 b4 00 00 00       	jmp    12baf <print_char+0x14d>
		}
		else
		{
			if (c < 32 || c > 126)
   12afb:	83 eb 20             	sub    $0x20,%ebx
   12afe:	80 fb 5e             	cmp    $0x5e,%bl
   12b01:	76 02                	jbe    12b05 <print_char+0xa3>
			{
				c = ' ';
   12b03:	b0 20                	mov    $0x20,%al
		u8 *ptr = _show_buffer + y * _show_Bpl * 16 + x * _show_Bpp * 8;
   12b05:	0f b7 15 c0 b5 01 00 	movzwl 0x1b5c0,%edx
   12b0c:	0f af d6             	imul   %esi,%edx
   12b0f:	0f b7 1d c2 b5 01 00 	movzwl 0x1b5c2,%ebx
   12b16:	0f af cb             	imul   %ebx,%ecx
   12b19:	8b 1d a0 b2 01 00    	mov    0x1b2a0,%ebx
	if (_GUI_mode)
   12b1f:	80 3d b4 b2 01 00 00 	cmpb   $0x0,0x1b2b4
   12b26:	74 72                	je     12b9a <print_char+0x138>
		const u8 *font_ptr = &fontdata_8x16[(c - 32) * 16];
   12b28:	83 e8 20             	sub    $0x20,%eax
   12b2b:	0f be c0             	movsbl %al,%eax
   12b2e:	c1 e0 04             	shl    $0x4,%eax
   12b31:	05 c0 83 01 00       	add    $0x183c0,%eax
   12b36:	89 45 dc             	mov    %eax,-0x24(%ebp)
		u8 *ptr = _show_buffer + y * _show_Bpl * 16 + x * _show_Bpp * 8;
   12b39:	01 d2                	add    %edx,%edx
   12b3b:	01 d1                	add    %edx,%ecx
   12b3d:	8d 3c cb             	lea    (%ebx,%ecx,8),%edi
   12b40:	31 f6                	xor    %esi,%esi
				c = ' ';
   12b42:	89 fb                	mov    %edi,%ebx
   12b44:	c7 45 e4 00 00 00 00 	movl   $0x0,-0x1c(%ebp)
				if ((font_ptr[i] << j) & 0x80)
   12b4b:	8b 45 dc             	mov    -0x24(%ebp),%eax
   12b4e:	0f b6 14 30          	movzbl (%eax,%esi,1),%edx
   12b52:	8a 4d e4             	mov    -0x1c(%ebp),%cl
   12b55:	d3 e2                	shl    %cl,%edx
   12b57:	80 e2 80             	and    $0x80,%dl
   12b5a:	74 0a                	je     12b66 <print_char+0x104>
					memcpy(tmp, &_show_fg, 3);
   12b5c:	50                   	push   %eax
   12b5d:	6a 03                	push   $0x3
   12b5f:	68 a4 b2 01 00       	push   $0x1b2a4
   12b64:	eb 08                	jmp    12b6e <print_char+0x10c>
					memcpy(tmp, &_show_bg, 3);
   12b66:	51                   	push   %ecx
   12b67:	6a 03                	push   $0x3
   12b69:	68 a8 b2 01 00       	push   $0x1b2a8
   12b6e:	53                   	push   %ebx
   12b6f:	e8 cf 38 00 00       	call   16443 <memcpy>
   12b74:	83 c4 10             	add    $0x10,%esp
				tmp += _show_Bpp;
   12b77:	0f b7 15 c2 b5 01 00 	movzwl 0x1b5c2,%edx
   12b7e:	01 d3                	add    %edx,%ebx
			for (u8 j = 0; j < 8; ++j)
   12b80:	ff 45 e4             	incl   -0x1c(%ebp)
   12b83:	83 7d e4 08          	cmpl   $0x8,-0x1c(%ebp)
   12b87:	75 c2                	jne    12b4b <print_char+0xe9>
			ptr += _show_Bpl;
   12b89:	0f b7 05 c0 b5 01 00 	movzwl 0x1b5c0,%eax
   12b90:	01 c7                	add    %eax,%edi
		for (u8 i = 0; i < 16; ++i)
   12b92:	46                   	inc    %esi
   12b93:	83 fe 10             	cmp    $0x10,%esi
   12b96:	75 aa                	jne    12b42 <print_char+0xe0>
   12b98:	eb 0e                	jmp    12ba8 <print_char+0x146>
		u32 offset = y * _show_Bpl + x * _show_Bpp;
   12b9a:	01 ca                	add    %ecx,%edx
		_show_buffer[offset++] = c;
   12b9c:	88 04 13             	mov    %al,(%ebx,%edx,1)
		_show_buffer[offset] = _show_color;
   12b9f:	a0 b5 b2 01 00       	mov    0x1b2b5,%al
   12ba4:	88 44 13 01          	mov    %al,0x1(%ebx,%edx,1)
			}

			draw_font(_show_x, _show_y, c);
			++_show_x;
   12ba8:	66 ff 05 cc b5 01 00 	incw   0x1b5cc
		}

		set_line_count(_show_y, _show_x);
   12baf:	66 8b 15 cc b5 01 00 	mov    0x1b5cc,%dx
   12bb6:	0f b7 0d ca b5 01 00 	movzwl 0x1b5ca,%ecx
   12bbd:	89 c8                	mov    %ecx,%eax
	_line_count[row] = count;
   12bbf:	66 89 94 09 c0 b3 01 	mov    %dx,0x1b3c0(%ecx,%ecx,1)
   12bc6:	00 
	_line_modified[row] = true;
   12bc7:	c6 81 c0 b2 01 00 01 	movb   $0x1,0x1b2c0(%ecx)
		if (_show_x == _max_colums)
   12bce:	66 3b 15 c8 b5 01 00 	cmp    0x1b5c8,%dx
   12bd5:	75 10                	jne    12be7 <print_char+0x185>
		{
			_show_x = 0;
   12bd7:	66 c7 05 cc b5 01 00 	movw   $0x0,0x1b5cc
   12bde:	00 00 
			++_show_y;
   12be0:	40                   	inc    %eax
   12be1:	66 a3 ca b5 01 00    	mov    %ax,0x1b5ca
		}
	}

	if (_show_y == _max_rows)
   12be7:	0f b7 05 ca b5 01 00 	movzwl 0x1b5ca,%eax
   12bee:	0f b7 15 c6 b5 01 00 	movzwl 0x1b5c6,%edx
   12bf5:	66 39 d0             	cmp    %dx,%ax
   12bf8:	0f 85 90 01 00 00    	jne    12d8e <print_char+0x32c>
	if (do_self)
   12bfe:	8a 1d b6 b2 01 00    	mov    0x1b2b6,%bl
   12c04:	80 f3 01             	xor    $0x1,%bl
   12c07:	88 5d dc             	mov    %bl,-0x24(%ebp)
   12c0a:	74 07                	je     12c13 <print_char+0x1b1>
		_have_parent = true;
   12c0c:	c6 05 b6 b2 01 00 01 	movb   $0x1,0x1b2b6
	if (_show_y < rows)
   12c13:	66 85 c0             	test   %ax,%ax
   12c16:	75 10                	jne    12c28 <print_char+0x1c6>
		_show_y = 0;
   12c18:	66 c7 05 ca b5 01 00 	movw   $0x0,0x1b5ca
   12c1f:	00 00 
		clear_rows(0, _max_rows);
   12c21:	31 c0                	xor    %eax,%eax
   12c23:	e9 35 01 00 00       	jmp    12d5d <print_char+0x2fb>
		_show_y -= rows;
   12c28:	8d 48 ff             	lea    -0x1(%eax),%ecx
   12c2b:	66 89 0d ca b5 01 00 	mov    %cx,0x1b5ca
		u8 *ptr_src = _show_buffer, *ptr_dst = _show_buffer;
   12c32:	8b 1d a0 b2 01 00    	mov    0x1b2a0,%ebx
		u16 src_start = rows, dst_start = 0, count = MIN(_show_y + 1, _max_rows - 1);
   12c38:	8d 7a ff             	lea    -0x1(%edx),%edi
   12c3b:	39 c7                	cmp    %eax,%edi
   12c3d:	7e 02                	jle    12c41 <print_char+0x1df>
   12c3f:	89 c7                	mov    %eax,%edi
		if (_GUI_mode)
   12c41:	80 3d b4 b2 01 00 00 	cmpb   $0x0,0x1b2b4
   12c48:	0f b7 35 c0 b5 01 00 	movzwl 0x1b5c0,%esi
   12c4f:	0f 84 91 00 00 00    	je     12ce6 <print_char+0x284>
			ptr_src += src_start * _show_Bpl * 16;
   12c55:	c1 e6 04             	shl    $0x4,%esi
   12c58:	8d 04 33             	lea    (%ebx,%esi,1),%eax
   12c5b:	89 45 e4             	mov    %eax,-0x1c(%ebp)
			for (u32 i = 0; i < count; ++i)
   12c5e:	31 f6                	xor    %esi,%esi
   12c60:	0f b7 c7             	movzwl %di,%eax
   12c63:	89 45 d8             	mov    %eax,-0x28(%ebp)
   12c66:	8d 46 01             	lea    0x1(%esi),%eax
   12c69:	3b 75 d8             	cmp    -0x28(%ebp),%esi
   12c6c:	0f 83 82 00 00 00    	jae    12cf4 <print_char+0x292>
				u32 size = (u32)_show_Bpp * 8 * _line_count[src_start];
   12c72:	0f b7 c0             	movzwl %ax,%eax
   12c75:	0f b7 3d c2 b5 01 00 	movzwl 0x1b5c2,%edi
   12c7c:	0f b7 94 00 c0 b3 01 	movzwl 0x1b3c0(%eax,%eax,1),%edx
   12c83:	00 
   12c84:	0f af fa             	imul   %edx,%edi
   12c87:	c1 e7 03             	shl    $0x3,%edi
   12c8a:	b2 10                	mov    $0x10,%dl
   12c8c:	88 55 e2             	mov    %dl,-0x1e(%ebp)
   12c8f:	89 45 d4             	mov    %eax,-0x2c(%ebp)
					memcpy(ptr_dst, ptr_src, size);
   12c92:	52                   	push   %edx
   12c93:	57                   	push   %edi
   12c94:	ff 75 e4             	push   -0x1c(%ebp)
   12c97:	53                   	push   %ebx
   12c98:	e8 a6 37 00 00       	call   16443 <memcpy>
					ptr_dst += _show_Bpl;
   12c9d:	0f b7 0d c0 b5 01 00 	movzwl 0x1b5c0,%ecx
   12ca4:	01 cb                	add    %ecx,%ebx
					ptr_src += _show_Bpl;
   12ca6:	01 4d e4             	add    %ecx,-0x1c(%ebp)
				for (u8 y = 0; y < 16; ++y) // each font are 16 pixel height
   12ca9:	83 c4 10             	add    $0x10,%esp
   12cac:	8a 55 e2             	mov    -0x1e(%ebp),%dl
   12caf:	fe ca                	dec    %dl
   12cb1:	8b 45 d4             	mov    -0x2c(%ebp),%eax
   12cb4:	75 d6                	jne    12c8c <print_char+0x22a>
				if (_line_count[dst_start] > _line_count[src_start])
   12cb6:	66 8b 94 00 c0 b3 01 	mov    0x1b3c0(%eax,%eax,1),%dx
   12cbd:	00 
   12cbe:	66 39 94 36 c0 b3 01 	cmp    %dx,0x1b3c0(%esi,%esi,1)
   12cc5:	00 
   12cc6:	76 0c                	jbe    12cd4 <print_char+0x272>
					clear_line(dst_start, _line_count[src_start]);
   12cc8:	0f b7 d2             	movzwl %dx,%edx
   12ccb:	89 f0                	mov    %esi,%eax
   12ccd:	e8 59 f9 ff ff       	call   1262b <clear_line>
   12cd2:	eb 0f                	jmp    12ce3 <print_char+0x281>
	_line_count[row] = count;
   12cd4:	66 89 94 36 c0 b3 01 	mov    %dx,0x1b3c0(%esi,%esi,1)
   12cdb:	00 
	_line_modified[row] = true;
   12cdc:	c6 86 c0 b2 01 00 01 	movb   $0x1,0x1b2c0(%esi)
			for (u32 i = 0; i < count; ++i)
   12ce3:	46                   	inc    %esi
   12ce4:	eb 80                	jmp    12c66 <print_char+0x204>
		u16 src_start = rows, dst_start = 0, count = MIN(_show_y + 1, _max_rows - 1);
   12ce6:	66 89 7d e4          	mov    %di,-0x1c(%ebp)
			ptr_src += src_start * _show_Bpl;
   12cea:	01 de                	add    %ebx,%esi
			for (u16 i = 0; i < count; ++i)
   12cec:	31 ff                	xor    %edi,%edi
   12cee:	66 39 7d e4          	cmp    %di,-0x1c(%ebp)
   12cf2:	77 1a                	ja     12d0e <print_char+0x2ac>
		if (_show_x == 0)
   12cf4:	0f b7 15 cc b5 01 00 	movzwl 0x1b5cc,%edx
   12cfb:	66 85 d2             	test   %dx,%dx
   12cfe:	75 64                	jne    12d64 <print_char+0x302>
			clear_rows(_show_y, rows);
   12d00:	0f b7 05 ca b5 01 00 	movzwl 0x1b5ca,%eax
   12d07:	ba 01 00 00 00       	mov    $0x1,%edx
   12d0c:	eb 4f                	jmp    12d5d <print_char+0x2fb>
				memcpy(ptr_dst, ptr_src, _show_Bpp * _line_count[src_start]);
   12d0e:	50                   	push   %eax
   12d0f:	0f b7 15 c2 b5 01 00 	movzwl 0x1b5c2,%edx
   12d16:	0f b7 8c 3f c2 b3 01 	movzwl 0x1b3c2(%edi,%edi,1),%ecx
   12d1d:	00 
   12d1e:	0f af d1             	imul   %ecx,%edx
   12d21:	52                   	push   %edx
   12d22:	56                   	push   %esi
   12d23:	53                   	push   %ebx
   12d24:	e8 1a 37 00 00       	call   16443 <memcpy>
				ptr_dst += _show_Bpl;
   12d29:	0f b7 15 c0 b5 01 00 	movzwl 0x1b5c0,%edx
   12d30:	01 d3                	add    %edx,%ebx
				ptr_src += _show_Bpl;
   12d32:	01 d6                	add    %edx,%esi
				if (_line_count[dst_start] > _line_count[src_start])
   12d34:	0f b7 94 3f c2 b3 01 	movzwl 0x1b3c2(%edi,%edi,1),%edx
   12d3b:	00 
   12d3c:	83 c4 10             	add    $0x10,%esp
   12d3f:	66 39 94 3f c0 b3 01 	cmp    %dx,0x1b3c0(%edi,%edi,1)
   12d46:	00 
   12d47:	76 09                	jbe    12d52 <print_char+0x2f0>
					clear_line(dst_start, _line_count[src_start]);
   12d49:	89 f8                	mov    %edi,%eax
   12d4b:	e8 db f8 ff ff       	call   1262b <clear_line>
   12d50:	eb 08                	jmp    12d5a <print_char+0x2f8>
					_line_count[dst_start] = _line_count[src_start];
   12d52:	66 89 94 3f c0 b3 01 	mov    %dx,0x1b3c0(%edi,%edi,1)
   12d59:	00 
			for (u16 i = 0; i < count; ++i)
   12d5a:	47                   	inc    %edi
   12d5b:	eb 91                	jmp    12cee <print_char+0x28c>
			clear_rows(_show_y, rows);
   12d5d:	e8 03 fa ff ff       	call   12765 <clear_rows>
   12d62:	eb 18                	jmp    12d7c <print_char+0x31a>
			if (_show_x != _max_colums - 1)
   12d64:	0f b7 05 c8 b5 01 00 	movzwl 0x1b5c8,%eax
   12d6b:	48                   	dec    %eax
   12d6c:	39 c2                	cmp    %eax,%edx
   12d6e:	74 0c                	je     12d7c <print_char+0x31a>
				clear_line(_show_y, _show_x);
   12d70:	0f b7 05 ca b5 01 00 	movzwl 0x1b5ca,%eax
   12d77:	e8 af f8 ff ff       	call   1262b <clear_line>
	if (do_self)
   12d7c:	80 7d dc 00          	cmpb   $0x0,-0x24(%ebp)
   12d80:	74 0c                	je     12d8e <print_char+0x32c>
		update();
   12d82:	e8 d2 f7 ff ff       	call   12559 <update>
		_have_parent = false;
   12d87:	c6 05 b6 b2 01 00 00 	movb   $0x0,0x1b2b6
	if (_GUI_mode)
   12d8e:	80 3d b4 b2 01 00 00 	cmpb   $0x0,0x1b2b4
   12d95:	75 4f                	jne    12de6 <print_char+0x384>
		u16 cur_pos = y * _max_colums + x;
   12d97:	66 8b 1d ca b5 01 00 	mov    0x1b5ca,%bx
   12d9e:	66 0f af 1d c8 b5 01 	imul   0x1b5c8,%bx
   12da5:	00 
   12da6:	66 03 1d cc b5 01 00 	add    0x1b5cc,%bx
		u32 save_eflags = read_eflags();
   12dad:	e8 a4 f7 ff ff       	call   12556 <read_eflags>
   12db2:	89 c1                	mov    %eax,%ecx
	__asm__ __volatile__("cli\n" ::
   12db4:	fa                   	cli    
   12db5:	bf d4 03 00 00       	mov    $0x3d4,%edi
   12dba:	b0 0e                	mov    $0xe,%al
   12dbc:	89 fa                	mov    %edi,%edx
   12dbe:	ee                   	out    %al,(%dx)
		port_write_byte(CRTC_COLOR_PORT_DATA, cur_pos >> 8);
   12dbf:	89 d8                	mov    %ebx,%eax
   12dc1:	66 c1 e8 08          	shr    $0x8,%ax
   12dc5:	be d5 03 00 00       	mov    $0x3d5,%esi
   12dca:	89 f2                	mov    %esi,%edx
   12dcc:	ee                   	out    %al,(%dx)
   12dcd:	b0 0f                	mov    $0xf,%al
   12dcf:	89 fa                	mov    %edi,%edx
   12dd1:	ee                   	out    %al,(%dx)
   12dd2:	88 d8                	mov    %bl,%al
   12dd4:	89 f2                	mov    %esi,%edx
   12dd6:	ee                   	out    %al,(%dx)
		write_eflags(read_eflags() | (save_eflags & EFLAGS_IF));
   12dd7:	e8 7a f7 ff ff       	call   12556 <read_eflags>
   12ddc:	81 e1 00 02 00 00    	and    $0x200,%ecx
   12de2:	09 c1                	or     %eax,%ecx
	__asm__ __volatile__("pushl %0\n\t"
   12de4:	51                   	push   %ecx
   12de5:	9d                   	popf   
		scroll_up(1);
	}

	set_cursor_pos(_show_x, _show_y);

	if (do_self)
   12de6:	80 7d e3 00          	cmpb   $0x0,-0x1d(%ebp)
   12dea:	74 0c                	je     12df8 <print_char+0x396>
	{
		update();
   12dec:	e8 68 f7 ff ff       	call   12559 <update>
		_have_parent = false;
   12df1:	c6 05 b6 b2 01 00 00 	movb   $0x0,0x1b2b6
	}
}
   12df8:	8d 65 f4             	lea    -0xc(%ebp),%esp
   12dfb:	5b                   	pop    %ebx
   12dfc:	5e                   	pop    %esi
   12dfd:	5f                   	pop    %edi
   12dfe:	5d                   	pop    %ebp
   12dff:	c3                   	ret    

00012e00 <print_int>:
{
   12e00:	55                   	push   %ebp
   12e01:	89 e5                	mov    %esp,%ebp
   12e03:	57                   	push   %edi
   12e04:	56                   	push   %esi
   12e05:	53                   	push   %ebx
   12e06:	83 ec 4c             	sub    $0x4c,%esp
   12e09:	89 45 b4             	mov    %eax,-0x4c(%ebp)
   12e0c:	89 55 b0             	mov    %edx,-0x50(%ebp)
   12e0f:	89 cb                	mov    %ecx,%ebx
	char translate_table[] = {"0123456789abcdef"};
   12e11:	8d 7d d7             	lea    -0x29(%ebp),%edi
   12e14:	be ea 80 01 00       	mov    $0x180ea,%esi
   12e19:	b9 11 00 00 00       	mov    $0x11,%ecx
   12e1e:	f3 a4                	rep movsb %ds:(%esi),%es:(%edi)
	if (do_self)
   12e20:	a0 b6 b2 01 00       	mov    0x1b2b6,%al
   12e25:	34 01                	xor    $0x1,%al
   12e27:	88 45 af             	mov    %al,-0x51(%ebp)
   12e2a:	74 07                	je     12e33 <print_int+0x33>
		_have_parent = true;
   12e2c:	c6 05 b6 b2 01 00 01 	movb   $0x1,0x1b2b6
{
   12e33:	31 c9                	xor    %ecx,%ecx
		index_seq[index_count++] = n % base;
   12e35:	8b 45 b4             	mov    -0x4c(%ebp),%eax
   12e38:	31 d2                	xor    %edx,%edx
   12e3a:	f7 75 b0             	divl   -0x50(%ebp)
   12e3d:	89 45 a8             	mov    %eax,-0x58(%ebp)
   12e40:	89 ce                	mov    %ecx,%esi
   12e42:	8d 4e 01             	lea    0x1(%esi),%ecx
   12e45:	89 f0                	mov    %esi,%eax
   12e47:	0f b6 f8             	movzbl %al,%edi
   12e4a:	88 54 3d c7          	mov    %dl,-0x39(%ebp,%edi,1)
		n /= base;
   12e4e:	8b 55 b4             	mov    -0x4c(%ebp),%edx
   12e51:	8b 45 a8             	mov    -0x58(%ebp),%eax
   12e54:	89 45 b4             	mov    %eax,-0x4c(%ebp)
	} while (n != 0);
   12e57:	3b 55 b0             	cmp    -0x50(%ebp),%edx
   12e5a:	73 d9                	jae    12e35 <print_int+0x35>
	if (width > index_count)
   12e5c:	0f b6 c9             	movzbl %cl,%ecx
   12e5f:	39 d9                	cmp    %ebx,%ecx
   12e61:	73 12                	jae    12e75 <print_int+0x75>
		width -= index_count;
   12e63:	29 cb                	sub    %ecx,%ebx
			print_char('0');
   12e65:	83 ec 0c             	sub    $0xc,%esp
   12e68:	6a 30                	push   $0x30
   12e6a:	e8 f3 fb ff ff       	call   12a62 <print_char>
		while (width--)
   12e6f:	83 c4 10             	add    $0x10,%esp
   12e72:	4b                   	dec    %ebx
   12e73:	75 f0                	jne    12e65 <print_int+0x65>
	while (index_count--)
   12e75:	89 f0                	mov    %esi,%eax
   12e77:	fe c0                	inc    %al
   12e79:	74 1e                	je     12e99 <print_int+0x99>
		print_char(translate_table[index_seq[index_count]]);
   12e7b:	83 ec 0c             	sub    $0xc,%esp
   12e7e:	89 f0                	mov    %esi,%eax
   12e80:	0f b6 c0             	movzbl %al,%eax
   12e83:	0f b6 44 05 c7       	movzbl -0x39(%ebp,%eax,1),%eax
   12e88:	0f be 44 05 d7       	movsbl -0x29(%ebp,%eax,1),%eax
   12e8d:	50                   	push   %eax
   12e8e:	e8 cf fb ff ff       	call   12a62 <print_char>
   12e93:	4e                   	dec    %esi
   12e94:	83 c4 10             	add    $0x10,%esp
   12e97:	eb dc                	jmp    12e75 <print_int+0x75>
	if (do_self)
   12e99:	80 7d af 00          	cmpb   $0x0,-0x51(%ebp)
   12e9d:	74 0c                	je     12eab <print_int+0xab>
		update();
   12e9f:	e8 b5 f6 ff ff       	call   12559 <update>
		_have_parent = false;
   12ea4:	c6 05 b6 b2 01 00 00 	movb   $0x0,0x1b2b6
}
   12eab:	8d 65 f4             	lea    -0xc(%ebp),%esp
   12eae:	5b                   	pop    %ebx
   12eaf:	5e                   	pop    %esi
   12eb0:	5f                   	pop    %edi
   12eb1:	5d                   	pop    %ebp
   12eb2:	c3                   	ret    

00012eb3 <print_str>:

void print_str(const char *s)
{
   12eb3:	55                   	push   %ebp
   12eb4:	89 e5                	mov    %esp,%ebp
   12eb6:	56                   	push   %esi
   12eb7:	53                   	push   %ebx
   12eb8:	8b 75 08             	mov    0x8(%ebp),%esi
	bool do_self = !_have_parent;
	if (do_self)
   12ebb:	8a 1d b6 b2 01 00    	mov    0x1b2b6,%bl
   12ec1:	80 f3 01             	xor    $0x1,%bl
   12ec4:	74 07                	je     12ecd <print_str+0x1a>
		_have_parent = true;
   12ec6:	c6 05 b6 b2 01 00 01 	movb   $0x1,0x1b2b6

	while (*s != '\0')
   12ecd:	0f be 06             	movsbl (%esi),%eax
   12ed0:	84 c0                	test   %al,%al
   12ed2:	74 0f                	je     12ee3 <print_str+0x30>
	{
		print_char(*(s++));
   12ed4:	46                   	inc    %esi
   12ed5:	83 ec 0c             	sub    $0xc,%esp
   12ed8:	50                   	push   %eax
   12ed9:	e8 84 fb ff ff       	call   12a62 <print_char>
   12ede:	83 c4 10             	add    $0x10,%esp
   12ee1:	eb ea                	jmp    12ecd <print_str+0x1a>
	}

	if (do_self)
   12ee3:	84 db                	test   %bl,%bl
   12ee5:	74 0c                	je     12ef3 <print_str+0x40>
	{
		update();
   12ee7:	e8 6d f6 ff ff       	call   12559 <update>
		_have_parent = false;
   12eec:	c6 05 b6 b2 01 00 00 	movb   $0x0,0x1b2b6
	}
}
   12ef3:	8d 65 f8             	lea    -0x8(%ebp),%esp
   12ef6:	5b                   	pop    %ebx
   12ef7:	5e                   	pop    %esi
   12ef8:	5d                   	pop    %ebp
   12ef9:	c3                   	ret    

00012efa <printf>:

void printf(const char *fmt, ...)
{
   12efa:	55                   	push   %ebp
   12efb:	89 e5                	mov    %esp,%ebp
   12efd:	53                   	push   %ebx
   12efe:	51                   	push   %ecx
	va_list args;
	bool do_self = !_have_parent;
	if (do_self)
   12eff:	8a 1d b6 b2 01 00    	mov    0x1b2b6,%bl
   12f05:	80 f3 01             	xor    $0x1,%bl
   12f08:	74 07                	je     12f11 <printf+0x17>
		_have_parent = true;
   12f0a:	c6 05 b6 b2 01 00 01 	movb   $0x1,0x1b2b6

	va_start(args, fmt);
   12f11:	8d 45 0c             	lea    0xc(%ebp),%eax
	vsprintf(_print_buf[_cur_env], fmt, args);
   12f14:	52                   	push   %edx
   12f15:	50                   	push   %eax
   12f16:	ff 75 08             	push   0x8(%ebp)
   12f19:	a1 d8 b5 01 00       	mov    0x1b5d8,%eax
   12f1e:	c1 e0 0a             	shl    $0xa,%eax
   12f21:	05 a0 aa 01 00       	add    $0x1aaa0,%eax
   12f26:	50                   	push   %eax
   12f27:	e8 27 36 00 00       	call   16553 <vsprintf>
	va_end(args);

	print_str(_print_buf[_cur_env]);
   12f2c:	a1 d8 b5 01 00       	mov    0x1b5d8,%eax
   12f31:	c1 e0 0a             	shl    $0xa,%eax
   12f34:	05 a0 aa 01 00       	add    $0x1aaa0,%eax
   12f39:	89 04 24             	mov    %eax,(%esp)
   12f3c:	e8 72 ff ff ff       	call   12eb3 <print_str>

	if (do_self)
   12f41:	83 c4 10             	add    $0x10,%esp
   12f44:	84 db                	test   %bl,%bl
   12f46:	74 0c                	je     12f54 <printf+0x5a>
	{
		update();
   12f48:	e8 0c f6 ff ff       	call   12559 <update>
		_have_parent = false;
   12f4d:	c6 05 b6 b2 01 00 00 	movb   $0x0,0x1b2b6
	}
}
   12f54:	8b 5d fc             	mov    -0x4(%ebp),%ebx
   12f57:	c9                   	leave  
   12f58:	c3                   	ret    

00012f59 <console_dumpinfo>:
{
   12f59:	55                   	push   %ebp
   12f5a:	89 e5                	mov    %esp,%ebp
   12f5c:	83 ec 0c             	sub    $0xc,%esp
	printf("\nline_count=0x%x\nmax_colums=%d\nmax_rows=%d\nbpp=%d\nBpp=%d\nBpl=%d\n",
   12f5f:	0f b7 05 c0 b5 01 00 	movzwl 0x1b5c0,%eax
   12f66:	50                   	push   %eax
   12f67:	0f b7 05 c2 b5 01 00 	movzwl 0x1b5c2,%eax
   12f6e:	50                   	push   %eax
   12f6f:	0f b7 05 c4 b5 01 00 	movzwl 0x1b5c4,%eax
   12f76:	50                   	push   %eax
   12f77:	0f b7 05 c6 b5 01 00 	movzwl 0x1b5c6,%eax
   12f7e:	50                   	push   %eax
   12f7f:	0f b7 05 c8 b5 01 00 	movzwl 0x1b5c8,%eax
   12f86:	50                   	push   %eax
   12f87:	68 c0 b3 01 00       	push   $0x1b3c0
   12f8c:	68 fb 80 01 00       	push   $0x180fb
   12f91:	e8 64 ff ff ff       	call   12efa <printf>
}
   12f96:	83 c4 20             	add    $0x20,%esp
   12f99:	c9                   	leave  
   12f9a:	c3                   	ret    

00012f9b <print_dec>:

void print_dec(u32 n, u32 width)
{
   12f9b:	55                   	push   %ebp
   12f9c:	89 e5                	mov    %esp,%ebp
   12f9e:	53                   	push   %ebx
   12f9f:	52                   	push   %edx
	bool do_self = !_have_parent;
	if (do_self)
   12fa0:	8a 1d b6 b2 01 00    	mov    0x1b2b6,%bl
   12fa6:	80 f3 01             	xor    $0x1,%bl
   12fa9:	74 07                	je     12fb2 <print_dec+0x17>
		_have_parent = true;
   12fab:	c6 05 b6 b2 01 00 01 	movb   $0x1,0x1b2b6

	print_int(n, 10, width);
   12fb2:	8b 4d 0c             	mov    0xc(%ebp),%ecx
   12fb5:	ba 0a 00 00 00       	mov    $0xa,%edx
   12fba:	8b 45 08             	mov    0x8(%ebp),%eax
   12fbd:	e8 3e fe ff ff       	call   12e00 <print_int>

	if (do_self)
   12fc2:	84 db                	test   %bl,%bl
   12fc4:	74 0c                	je     12fd2 <print_dec+0x37>
	{
		update();
   12fc6:	e8 8e f5 ff ff       	call   12559 <update>
		_have_parent = false;
   12fcb:	c6 05 b6 b2 01 00 00 	movb   $0x0,0x1b2b6
	}
}
   12fd2:	58                   	pop    %eax
   12fd3:	5b                   	pop    %ebx
   12fd4:	5d                   	pop    %ebp
   12fd5:	c3                   	ret    

00012fd6 <print_hex>:

void print_hex(u32 n, u32 width)
{
   12fd6:	55                   	push   %ebp
   12fd7:	89 e5                	mov    %esp,%ebp
   12fd9:	53                   	push   %ebx
   12fda:	52                   	push   %edx
	bool do_self = !_have_parent;
	if (do_self)
   12fdb:	8a 1d b6 b2 01 00    	mov    0x1b2b6,%bl
   12fe1:	80 f3 01             	xor    $0x1,%bl
   12fe4:	74 07                	je     12fed <print_hex+0x17>
		_have_parent = true;
   12fe6:	c6 05 b6 b2 01 00 01 	movb   $0x1,0x1b2b6

	print_int(n, 16, width);
   12fed:	8b 4d 0c             	mov    0xc(%ebp),%ecx
   12ff0:	ba 10 00 00 00       	mov    $0x10,%edx
   12ff5:	8b 45 08             	mov    0x8(%ebp),%eax
   12ff8:	e8 03 fe ff ff       	call   12e00 <print_int>

	if (do_self)
   12ffd:	84 db                	test   %bl,%bl
   12fff:	74 0c                	je     1300d <print_hex+0x37>
	{
		update();
   13001:	e8 53 f5 ff ff       	call   12559 <update>
		_have_parent = false;
   13006:	c6 05 b6 b2 01 00 00 	movb   $0x0,0x1b2b6
	}
}
   1300d:	58                   	pop    %eax
   1300e:	5b                   	pop    %ebx
   1300f:	5d                   	pop    %ebp
   13010:	c3                   	ret    

00013011 <print_oct>:

void print_oct(u32 n, u32 width)
{
   13011:	55                   	push   %ebp
   13012:	89 e5                	mov    %esp,%ebp
   13014:	53                   	push   %ebx
   13015:	52                   	push   %edx
	bool do_self = !_have_parent;
	if (do_self)
   13016:	8a 1d b6 b2 01 00    	mov    0x1b2b6,%bl
   1301c:	80 f3 01             	xor    $0x1,%bl
   1301f:	74 07                	je     13028 <print_oct+0x17>
		_have_parent = true;
   13021:	c6 05 b6 b2 01 00 01 	movb   $0x1,0x1b2b6

	print_int(n, 8, width);
   13028:	8b 4d 0c             	mov    0xc(%ebp),%ecx
   1302b:	ba 08 00 00 00       	mov    $0x8,%edx
   13030:	8b 45 08             	mov    0x8(%ebp),%eax
   13033:	e8 c8 fd ff ff       	call   12e00 <print_int>

	if (do_self)
   13038:	84 db                	test   %bl,%bl
   1303a:	74 0c                	je     13048 <print_oct+0x37>
	{
		update();
   1303c:	e8 18 f5 ff ff       	call   12559 <update>
		_have_parent = false;
   13041:	c6 05 b6 b2 01 00 00 	movb   $0x0,0x1b2b6
	}
}
   13048:	58                   	pop    %eax
   13049:	5b                   	pop    %ebx
   1304a:	5d                   	pop    %ebp
   1304b:	c3                   	ret    

0001304c <getkey>:

static u8 kbd_flags; // shift-ctrl-alt-caps-gui

u8 getkey(bool *released)
{
   1304c:	55                   	push   %ebp
   1304d:	89 e5                	mov    %esp,%ebp
   1304f:	53                   	push   %ebx
   13050:	83 ec 20             	sub    $0x20,%esp
   13053:	8b 5d 08             	mov    0x8(%ebp),%ebx
	struct kbd_key_packet key;
	bool ret = kbd_get_key(&key);
   13056:	8d 45 f6             	lea    -0xa(%ebp),%eax
   13059:	50                   	push   %eax
   1305a:	e8 c4 1d 00 00       	call   14e23 <kbd_get_key>
   1305f:	88 c2                	mov    %al,%dl
	if (ret)
   13061:	83 c4 10             	add    $0x10,%esp
   13064:	31 c0                	xor    %eax,%eax
   13066:	84 d2                	test   %dl,%dl
   13068:	74 0c                	je     13076 <getkey+0x2a>
	{
		if (released)
   1306a:	85 db                	test   %ebx,%ebx
   1306c:	74 05                	je     13073 <getkey+0x27>
			*released = key.released;
   1306e:	8a 45 f7             	mov    -0x9(%ebp),%al
   13071:	88 03                	mov    %al,(%ebx)
		return key.key;
   13073:	8a 45 f6             	mov    -0xa(%ebp),%al
	}
	return 0;
}
   13076:	8b 5d fc             	mov    -0x4(%ebp),%ebx
   13079:	c9                   	leave  
   1307a:	c3                   	ret    

0001307b <getchar>:

char getchar(void)
{
   1307b:	55                   	push   %ebp
   1307c:	89 e5                	mov    %esp,%ebp
   1307e:	53                   	push   %ebx
   1307f:	83 ec 24             	sub    $0x24,%esp
		"~_+{}?|:\"><)!@#$%^&*(\0\0\0\0\0\0\0ABCDEFGHIJKLMNOPQRSTUVWXYZ"};
	struct kbd_key_packet key;
	char c;
	while (true)
	{
		if (!kbd_get_key(&key))
   13082:	83 ec 0c             	sub    $0xc,%esp
   13085:	8d 45 f6             	lea    -0xa(%ebp),%eax
   13088:	50                   	push   %eax
   13089:	e8 95 1d 00 00       	call   14e23 <kbd_get_key>
   1308e:	83 c4 10             	add    $0x10,%esp
   13091:	84 c0                	test   %al,%al
   13093:	74 ed                	je     13082 <getchar+0x7>
			continue;
		if (key.key == KEY_LSHIFT || key.key == KEY_RSHIFT)
   13095:	0f b6 45 f6          	movzbl -0xa(%ebp),%eax
		{
			if (key.released)
   13099:	8a 55 f7             	mov    -0x9(%ebp),%dl
		if (key.key == KEY_LSHIFT || key.key == KEY_RSHIFT)
   1309c:	3c 07                	cmp    $0x7,%al
   1309e:	74 04                	je     130a4 <getchar+0x29>
   130a0:	3c 04                	cmp    $0x4,%al
   130a2:	75 13                	jne    130b7 <getchar+0x3c>
				kbd_flags &= ~(1 << 4);
   130a4:	a0 80 aa 01 00       	mov    0x1aa80,%al
			if (key.released)
   130a9:	84 d2                	test   %dl,%dl
   130ab:	74 05                	je     130b2 <getchar+0x37>
				kbd_flags &= ~(1 << 4);
   130ad:	83 e0 ef             	and    $0xffffffef,%eax
   130b0:	eb 1e                	jmp    130d0 <getchar+0x55>
			else
				kbd_flags |= 1 << 4;
   130b2:	83 c8 10             	or     $0x10,%eax
   130b5:	eb 19                	jmp    130d0 <getchar+0x55>
		// 	if (key.released)
		// 		kbd_flags &= ~(1 << 0);
		// 	else
		// 		kbd_flags |= 1 << 0;
		// }
		else if (!key.released)
   130b7:	84 d2                	test   %dl,%dl
   130b9:	75 c7                	jne    13082 <getchar+0x7>
		{
			if (key.key == KEY_CAPS)
   130bb:	3c 15                	cmp    $0x15,%al
   130bd:	75 18                	jne    130d7 <getchar+0x5c>
			{
				if (kbd_flags & 0x2)
   130bf:	a0 80 aa 01 00       	mov    0x1aa80,%al
   130c4:	a8 02                	test   $0x2,%al
   130c6:	74 05                	je     130cd <getchar+0x52>
					kbd_flags &= ~(1 << 1);
   130c8:	83 e0 fd             	and    $0xfffffffd,%eax
   130cb:	eb 03                	jmp    130d0 <getchar+0x55>
				else
					kbd_flags |= 1 << 1;
   130cd:	83 c8 02             	or     $0x2,%eax
   130d0:	a2 80 aa 01 00       	mov    %al,0x1aa80
   130d5:	eb ab                	jmp    13082 <getchar+0x7>
			}
			else if (key.key == KEY_ENTER)
   130d7:	3c 0e                	cmp    $0xe,%al
   130d9:	74 48                	je     13123 <getchar+0xa8>
			{
				c = '\n';
				break;
			}
			else if (key.key == KEY_TAB)
   130db:	3c 09                	cmp    $0x9,%al
   130dd:	74 48                	je     13127 <getchar+0xac>
			{
				c = '\t';
				break;
			}
			else if (key.key == KEY_BACK)
   130df:	3c 08                	cmp    $0x8,%al
   130e1:	74 48                	je     1312b <getchar+0xb0>
			{
				c = '\b';
				break;
			}
			else if (key.key == KEY_SPACE)
   130e3:	3c 24                	cmp    $0x24,%al
   130e5:	74 48                	je     1312f <getchar+0xb4>
			{
				c = ' ';
				break;
			}
			else if ((key.key >= KEY_BTICK && key.key <= '9') || (key.key >= 'A' && key.key <= 'Z'))
   130e7:	8d 50 db             	lea    -0x25(%eax),%edx
   130ea:	80 fa 14             	cmp    $0x14,%dl
   130ed:	76 08                	jbe    130f7 <getchar+0x7c>
   130ef:	8d 50 bf             	lea    -0x41(%eax),%edx
   130f2:	80 fa 19             	cmp    $0x19,%dl
   130f5:	77 8b                	ja     13082 <getchar+0x7>
			{
				u8 idx = 0;
				if (kbd_flags & 0x2 && key.key >= 'A')
   130f7:	8a 0d 80 aa 01 00    	mov    0x1aa80,%cl
   130fd:	88 ca                	mov    %cl,%dl
   130ff:	d0 ea                	shr    %dl
   13101:	3c 40                	cmp    $0x40,%al
   13103:	0f 97 c3             	seta   %bl
   13106:	21 da                	and    %ebx,%edx
				{
					idx = 1;
				}
				if (kbd_flags & 0x10)
   13108:	80 e1 10             	and    $0x10,%cl
   1310b:	74 06                	je     13113 <getchar+0x98>
				{
					if (idx == 1)
   1310d:	b1 01                	mov    $0x1,%cl
   1310f:	29 d1                	sub    %edx,%ecx
   13111:	88 ca                	mov    %cl,%dl
						idx = 0;
					else
						idx = 1;
				}
				c = key_char_mapping[idx][key.key - KEY_BTICK];
   13113:	0f b6 d2             	movzbl %dl,%edx
   13116:	8b 14 95 ac 81 01 00 	mov    0x181ac(,%edx,4),%edx
   1311d:	8a 44 02 db          	mov    -0x25(%edx,%eax,1),%al
				break;
   13121:	eb 0e                	jmp    13131 <getchar+0xb6>
				c = '\n';
   13123:	b0 0a                	mov    $0xa,%al
   13125:	eb 0a                	jmp    13131 <getchar+0xb6>
				c = '\t';
   13127:	b0 09                	mov    $0x9,%al
   13129:	eb 06                	jmp    13131 <getchar+0xb6>
				c = '\b';
   1312b:	b0 08                	mov    $0x8,%al
   1312d:	eb 02                	jmp    13131 <getchar+0xb6>
				c = ' ';
   1312f:	b0 20                	mov    $0x20,%al
			}
		}
	}

	print_char(c);
   13131:	83 ec 0c             	sub    $0xc,%esp
   13134:	0f be d0             	movsbl %al,%edx
   13137:	88 45 e7             	mov    %al,-0x19(%ebp)
   1313a:	52                   	push   %edx
   1313b:	e8 22 f9 ff ff       	call   12a62 <print_char>
	return c;
}
   13140:	8a 45 e7             	mov    -0x19(%ebp),%al
   13143:	8b 5d fc             	mov    -0x4(%ebp),%ebx
   13146:	c9                   	leave  
   13147:	c3                   	ret    

00013148 <dma_setup>:
   13148:	b0 0f                	mov    $0xf,%al
   1314a:	e6 0f                	out    %al,$0xf
   1314c:	b0 0e                	mov    $0xe,%al
   1314e:	e6 de                	out    %al,$0xde

	// port_write_byte(DMA_PORT_MODE_1, 0xc0);
	// port_write_byte(DMA_PORT_MASK_RESET_1, 0);
	// port_write_byte(DMA_PORT_MODE_2, 0xc0);
	// port_write_byte(DMA_PORT_MASK_RESET_2, 0);
}
   13150:	c3                   	ret    

00013151 <dma_prepare>:

bool dma_prepare(u8 channel, u32 paddr, u32 len, bool write)
{
   13151:	55                   	push   %ebp
   13152:	89 e5                	mov    %esp,%ebp
   13154:	57                   	push   %edi
   13155:	56                   	push   %esi
   13156:	53                   	push   %ebx
   13157:	83 ec 14             	sub    $0x14,%esp
   1315a:	8b 4d 08             	mov    0x8(%ebp),%ecx
   1315d:	8b 55 0c             	mov    0xc(%ebp),%edx
   13160:	8b 7d 10             	mov    0x10(%ebp),%edi
   13163:	8b 45 14             	mov    0x14(%ebp),%eax
   13166:	89 45 e0             	mov    %eax,-0x20(%ebp)
	u16 port_ff_clear, port_mode, port_addr, port_count, port_page = 0;
	u16 count;
	u16 buf_offset;
	u8 page;

	if (channel == 0 || channel == 4 || channel > 7 || paddr + len > 16 * 1024 * 1024 || (paddr >> 16) != ((paddr + len) >> 16) || len > 64 * 1024)
   13169:	8d 41 ff             	lea    -0x1(%ecx),%eax
   1316c:	88 45 e4             	mov    %al,-0x1c(%ebp)
   1316f:	80 f9 04             	cmp    $0x4,%cl
   13172:	0f 94 c3             	sete   %bl
   13175:	3c 06                	cmp    $0x6,%al
   13177:	0f 97 c0             	seta   %al
   1317a:	08 d8                	or     %bl,%al
   1317c:	0f 85 06 01 00 00    	jne    13288 <dma_prepare+0x137>
   13182:	8d 1c 3a             	lea    (%edx,%edi,1),%ebx
   13185:	81 fb 00 00 00 01    	cmp    $0x1000000,%ebx
   1318b:	0f 87 f9 00 00 00    	ja     1328a <dma_prepare+0x139>
   13191:	89 d6                	mov    %edx,%esi
   13193:	c1 ee 10             	shr    $0x10,%esi
   13196:	89 75 ec             	mov    %esi,-0x14(%ebp)
   13199:	c1 eb 10             	shr    $0x10,%ebx
   1319c:	39 f3                	cmp    %esi,%ebx
   1319e:	0f 85 e6 00 00 00    	jne    1328a <dma_prepare+0x139>
   131a4:	81 ff 00 00 01 00    	cmp    $0x10000,%edi
   131aa:	0f 87 da 00 00 00    	ja     1328a <dma_prepare+0x139>
	{
		return false;
	}

	page = paddr >> 16;
	buf_offset = paddr;
   131b0:	66 89 55 ea          	mov    %dx,-0x16(%ebp)
	if (channel < 4)
   131b4:	80 f9 03             	cmp    $0x3,%cl
   131b7:	77 1d                	ja     131d6 <dma_prepare+0x85>
	{
		port_ff_clear = DMA_PORT_FF_CLEAR_MASTER;
		port_mode = DMA_PORT_MODE_MASTER;
		port_addr = DMA_PORT_ADDR_0 + (channel << 1);
   131b9:	0f b6 c1             	movzbl %cl,%eax
   131bc:	d1 e0                	shl    %eax
   131be:	66 89 45 f2          	mov    %ax,-0xe(%ebp)
		port_count = port_addr + 1;
   131c2:	40                   	inc    %eax
   131c3:	66 89 45 f0          	mov    %ax,-0x10(%ebp)

		count = len;
   131c7:	89 f8                	mov    %edi,%eax
		port_mode = DMA_PORT_MODE_MASTER;
   131c9:	66 c7 45 e8 0b 00    	movw   $0xb,-0x18(%ebp)
		port_ff_clear = DMA_PORT_FF_CLEAR_MASTER;
   131cf:	bf 0c 00 00 00       	mov    $0xc,%edi
   131d4:	eb 3a                	jmp    13210 <dma_prepare+0xbf>
	}
	else
	{
		port_ff_clear = DMA_PORT_FF_CLEAR_SLAVE;
		port_mode = DMA_PORT_MODE_SLAVE;
		port_addr = DMA_PORT_ADDR_4 + ((channel & 0x3) << 2);
   131d6:	8d 04 8d 00 00 00 00 	lea    0x0(,%ecx,4),%eax
   131dd:	83 e0 0c             	and    $0xc,%eax
   131e0:	8d 98 c0 00 00 00    	lea    0xc0(%eax),%ebx
   131e6:	66 89 5d f2          	mov    %bx,-0xe(%ebp)
		port_count = port_addr + 2;
   131ea:	66 05 c2 00          	add    $0xc2,%ax
   131ee:	66 89 45 f0          	mov    %ax,-0x10(%ebp)
		
		u16 tmp = page & 0x1;
		tmp <<= 15;
		buf_offset >>= 1;
   131f2:	66 d1 ea             	shr    %dx
		tmp <<= 15;
   131f5:	8b 45 ec             	mov    -0x14(%ebp),%eax
   131f8:	c1 e0 0f             	shl    $0xf,%eax
		buf_offset &= 0x7fff;
		buf_offset |= tmp;
   131fb:	09 d0                	or     %edx,%eax
   131fd:	66 89 45 ea          	mov    %ax,-0x16(%ebp)
		count = len >> 1;
   13201:	89 f8                	mov    %edi,%eax
   13203:	d1 e8                	shr    %eax
		port_mode = DMA_PORT_MODE_SLAVE;
   13205:	66 c7 45 e8 d6 00    	movw   $0xd6,-0x18(%ebp)
		port_ff_clear = DMA_PORT_FF_CLEAR_SLAVE;
   1320b:	bf d8 00 00 00       	mov    $0xd8,%edi
	}
	count -= 1;
   13210:	48                   	dec    %eax
   13211:	66 89 45 e6          	mov    %ax,-0x1a(%ebp)

	switch (channel)
   13215:	0f b6 75 e4          	movzbl -0x1c(%ebp),%esi
   13219:	0f b6 86 b4 81 01 00 	movzbl 0x181b4(%esi),%eax
   13220:	66 89 45 e4          	mov    %ax,-0x1c(%ebp)
		break;
	}

	// port_page = port_page_list[channel];

	u8 transfer_mode = write ? 0x58 : 0x54; // Single, AI, Auto-Init
   13224:	80 7d e0 01          	cmpb   $0x1,-0x20(%ebp)
   13228:	19 db                	sbb    %ebx,%ebx
   1322a:	83 e3 fc             	and    $0xfffffffc,%ebx
   1322d:	83 c3 58             	add    $0x58,%ebx
	u16 port_smask = channel < 4 ? DMA_PORT_SMASK_MASTER : DMA_PORT_SMASK_SLAVE;
   13230:	be 0a 00 00 00       	mov    $0xa,%esi
   13235:	80 f9 03             	cmp    $0x3,%cl
   13238:	76 05                	jbe    1323f <dma_prepare+0xee>
   1323a:	be d4 00 00 00       	mov    $0xd4,%esi
	port_write_byte(port_smask, (off << 2) | (channel & 0x3));
   1323f:	83 e1 03             	and    $0x3,%ecx
   13242:	88 c8                	mov    %cl,%al
   13244:	83 c8 04             	or     $0x4,%eax
   13247:	89 f2                	mov    %esi,%edx
   13249:	ee                   	out    %al,(%dx)
   1324a:	31 c0                	xor    %eax,%eax
   1324c:	89 fa                	mov    %edi,%edx
   1324e:	ee                   	out    %al,(%dx)

	mask_channel(channel, true);
	port_write_byte(port_ff_clear, 0);
	port_write_byte(port_mode, transfer_mode | (channel & 0x3));
   1324f:	88 d8                	mov    %bl,%al
   13251:	09 c8                	or     %ecx,%eax
   13253:	8b 55 e8             	mov    -0x18(%ebp),%edx
   13256:	ee                   	out    %al,(%dx)
   13257:	8a 45 e6             	mov    -0x1a(%ebp),%al
   1325a:	8b 55 f0             	mov    -0x10(%ebp),%edx
   1325d:	ee                   	out    %al,(%dx)

	port_write_byte(port_count, count);
	port_write_byte(port_count, count >> 8);
   1325e:	66 8b 45 e6          	mov    -0x1a(%ebp),%ax
   13262:	66 c1 e8 08          	shr    $0x8,%ax
   13266:	ee                   	out    %al,(%dx)
   13267:	8a 45 ec             	mov    -0x14(%ebp),%al
   1326a:	8b 55 e4             	mov    -0x1c(%ebp),%edx
   1326d:	ee                   	out    %al,(%dx)
   1326e:	8a 45 ea             	mov    -0x16(%ebp),%al
   13271:	66 8b 55 f2          	mov    -0xe(%ebp),%dx
   13275:	ee                   	out    %al,(%dx)

	port_write_byte(port_page, page);
	port_write_byte(port_addr, buf_offset);
	port_write_byte(port_addr, buf_offset >> 8);	
   13276:	66 8b 45 ea          	mov    -0x16(%ebp),%ax
   1327a:	66 c1 e8 08          	shr    $0x8,%ax
   1327e:	ee                   	out    %al,(%dx)
   1327f:	88 c8                	mov    %cl,%al
   13281:	89 f2                	mov    %esi,%edx
   13283:	ee                   	out    %al,(%dx)
	
	mask_channel(channel, false);

	return true;
   13284:	b0 01                	mov    $0x1,%al
}
   13286:	eb 02                	jmp    1328a <dma_prepare+0x139>
		return false;
   13288:	31 c0                	xor    %eax,%eax
}
   1328a:	83 c4 14             	add    $0x14,%esp
   1328d:	5b                   	pop    %ebx
   1328e:	5e                   	pop    %esi
   1328f:	5f                   	pop    %edi
   13290:	5d                   	pop    %ebp
   13291:	c3                   	ret    

00013292 <dma_release>:
	
// 	mask_channel(channel, false);
// }

void dma_release(u8 channel)
{
   13292:	55                   	push   %ebp
   13293:	89 e5                	mov    %esp,%ebp
   13295:	8b 45 08             	mov    0x8(%ebp),%eax
	u16 port_smask = channel < 4 ? DMA_PORT_SMASK_MASTER : DMA_PORT_SMASK_SLAVE;
   13298:	ba d4 00 00 00       	mov    $0xd4,%edx
   1329d:	3c 03                	cmp    $0x3,%al
   1329f:	77 05                	ja     132a6 <dma_release+0x14>
   132a1:	ba 0a 00 00 00       	mov    $0xa,%edx
	port_write_byte(port_smask, (off << 2) | (channel & 0x3));
   132a6:	83 e0 03             	and    $0x3,%eax
   132a9:	83 c8 04             	or     $0x4,%eax
   132ac:	ee                   	out    %al,(%dx)
	mask_channel(channel, true);
}
   132ad:	5d                   	pop    %ebp
   132ae:	c3                   	ret    

000132af <irq_handler>:
    port_read_word(_iobase.base + ES1370_REG_CODEC);
    delay_ms(1);
}

static void irq_handler(void)
{
   132af:	55                   	push   %ebp
   132b0:	89 e5                	mov    %esp,%ebp
   132b2:	53                   	push   %ebx
   132b3:	83 ec 10             	sub    $0x10,%esp
    enum console_env old_env = console_set_env(CONSOLE_ENV_INTR);
   132b6:	6a 01                	push   $0x1
   132b8:	e8 11 f7 ff ff       	call   129ce <console_set_env>
   132bd:	89 c3                	mov    %eax,%ebx
    u32 status = port_read_dword(_iobase.base + ES1370_REG_STATUS);
   132bf:	a1 f0 b5 01 00       	mov    0x1b5f0,%eax
   132c4:	8d 50 04             	lea    0x4(%eax),%edx
}

inline static u32 port_read_dword(u16 port)
{
    u32 data;
    __asm__ volatile("inl %1, %0"
   132c7:	ed                   	in     (%dx),%eax
    printf("[ES1370] Irq Handler Invoked - 0x%x\n", status);
   132c8:	5a                   	pop    %edx
   132c9:	59                   	pop    %ecx
   132ca:	50                   	push   %eax
   132cb:	68 bb 81 01 00       	push   $0x181bb
   132d0:	e8 25 fc ff ff       	call   12efa <printf>
    console_set_env(old_env);
   132d5:	89 1c 24             	mov    %ebx,(%esp)
   132d8:	e8 f1 f6 ff ff       	call   129ce <console_set_env>
}
   132dd:	83 c4 10             	add    $0x10,%esp
   132e0:	8b 5d fc             	mov    -0x4(%ebp),%ebx
   132e3:	c9                   	leave  
   132e4:	c3                   	ret    

000132e5 <es1370_setup>:

void es1370_setup(void)
{
   132e5:	55                   	push   %ebp
   132e6:	89 e5                	mov    %esp,%ebp
   132e8:	57                   	push   %edi
   132e9:	56                   	push   %esi
   132ea:	53                   	push   %ebx
   132eb:	83 ec 24             	sub    $0x24,%esp
    bool found = pci_dev_find(&_dev_info, true);
   132ee:	6a 01                	push   $0x1
   132f0:	68 3c aa 01 00       	push   $0x1aa3c
   132f5:	e8 e5 25 00 00       	call   158df <pci_dev_find>
    if (!found)
   132fa:	83 c4 10             	add    $0x10,%esp
   132fd:	84 c0                	test   %al,%al
   132ff:	0f 84 2c 02 00 00    	je     13531 <es1370_setup+0x24c>
    {
        return;
    }

    printf("ES1370 PCI Controller\n"
   13305:	56                   	push   %esi
   13306:	56                   	push   %esi
   13307:	0f b6 05 4e aa 01 00 	movzbl 0x1aa4e,%eax
   1330e:	50                   	push   %eax
   1330f:	0f b6 05 51 aa 01 00 	movzbl 0x1aa51,%eax
   13316:	50                   	push   %eax
   13317:	0f b6 05 50 aa 01 00 	movzbl 0x1aa50,%eax
   1331e:	50                   	push   %eax
   1331f:	0f b6 05 4f aa 01 00 	movzbl 0x1aa4f,%eax
   13326:	50                   	push   %eax
   13327:	0f b7 05 4c aa 01 00 	movzwl 0x1aa4c,%eax
   1332e:	50                   	push   %eax
   1332f:	0f b7 05 4a aa 01 00 	movzwl 0x1aa4a,%eax
   13336:	50                   	push   %eax
   13337:	ff 35 44 aa 01 00    	push   0x1aa44
   1333d:	ff 35 40 aa 01 00    	push   0x1aa40
   13343:	ff 35 3c aa 01 00    	push   0x1aa3c
   13349:	68 e0 81 01 00       	push   $0x181e0
   1334e:	e8 a7 fb ff ff       	call   12efa <printf>
           _dev_info.bus, _dev_info.dev, _dev_info.func,
           _dev_info.ven_id, _dev_info.dev_id,
           _dev_info.class, _dev_info.subclass, _dev_info.progif, _dev_info.rev);

    u32 subsys_ven, status_cmd;
    subsys_ven = pci_conf_read_dword(_dev_info.bus, _dev_info.dev, _dev_info.func, 11);
   13353:	83 c4 30             	add    $0x30,%esp
   13356:	6a 0b                	push   $0xb
   13358:	ff 35 44 aa 01 00    	push   0x1aa44
   1335e:	ff 35 40 aa 01 00    	push   0x1aa40
   13364:	ff 35 3c aa 01 00    	push   0x1aa3c
   1336a:	e8 74 23 00 00       	call   156e3 <pci_conf_read_dword>
    printf("subsys: 0x%x, ven: 0x%x\n", subsys_ven >> 16, subsys_ven & 0xffff);
   1336f:	83 c4 0c             	add    $0xc,%esp
   13372:	0f b7 d0             	movzwl %ax,%edx
   13375:	52                   	push   %edx
   13376:	c1 e8 10             	shr    $0x10,%eax
   13379:	50                   	push   %eax
   1337a:	68 3c 82 01 00       	push   $0x1823c
   1337f:	e8 76 fb ff ff       	call   12efa <printf>
    status_cmd = pci_conf_read_dword(_dev_info.bus, _dev_info.dev, _dev_info.func, 1);
   13384:	6a 01                	push   $0x1
   13386:	ff 35 44 aa 01 00    	push   0x1aa44
   1338c:	ff 35 40 aa 01 00    	push   0x1aa40
   13392:	ff 35 3c aa 01 00    	push   0x1aa3c
   13398:	e8 46 23 00 00       	call   156e3 <pci_conf_read_dword>
    printf("status: 0x%x, command: 0x%x\n", status_cmd >> 16, status_cmd & 0xffff);
   1339d:	83 c4 1c             	add    $0x1c,%esp
   133a0:	0f b7 d0             	movzwl %ax,%edx
   133a3:	52                   	push   %edx
   133a4:	c1 e8 10             	shr    $0x10,%eax
   133a7:	50                   	push   %eax
   133a8:	68 55 82 01 00       	push   $0x18255
   133ad:	e8 48 fb ff ff       	call   12efa <printf>
    
    u16 intr_pin_line = pci_conf_read_word(_dev_info.bus, _dev_info.dev, _dev_info.func, 30);
   133b2:	6a 1e                	push   $0x1e
   133b4:	ff 35 44 aa 01 00    	push   0x1aa44
   133ba:	ff 35 40 aa 01 00    	push   0x1aa40
   133c0:	ff 35 3c aa 01 00    	push   0x1aa3c
   133c6:	e8 b4 23 00 00       	call   1577f <pci_conf_read_word>
   133cb:	89 c3                	mov    %eax,%ebx
    printf("IntrPin: %d, Line: %d\n", intr_pin_line >> 8, intr_pin_line & 0xff);
   133cd:	83 c4 1c             	add    $0x1c,%esp
   133d0:	0f b6 c0             	movzbl %al,%eax
   133d3:	50                   	push   %eax
   133d4:	0f b6 c7             	movzbl %bh,%eax
   133d7:	50                   	push   %eax
   133d8:	68 72 82 01 00       	push   $0x18272
   133dd:	e8 18 fb ff ff       	call   12efa <printf>

    _irq = intr_pin_line & 0xff;
   133e2:	88 1d dc b5 01 00    	mov    %bl,0x1b5dc

    pci_decode_bar(&_dev_info, 0, &_iobase);
   133e8:	83 c4 0c             	add    $0xc,%esp
   133eb:	68 ec b5 01 00       	push   $0x1b5ec
   133f0:	6a 00                	push   $0x0
   133f2:	68 3c aa 01 00       	push   $0x1aa3c
   133f7:	e8 27 26 00 00       	call   15a23 <pci_decode_bar>
    if (_iobase.type != PCI_BAR_TYPE_PIO)
   133fc:	0f b6 05 ec b5 01 00 	movzbl 0x1b5ec,%eax
   13403:	83 c4 10             	add    $0x10,%esp
   13406:	3c 01                	cmp    $0x1,%al
   13408:	74 12                	je     1341c <es1370_setup+0x137>
    {
        printf("[ES1370] ERROR: BAR0.type=%d!\n", _iobase.type);
   1340a:	53                   	push   %ebx
   1340b:	53                   	push   %ebx
   1340c:	50                   	push   %eax
   1340d:	68 89 82 01 00       	push   $0x18289
   13412:	e8 e3 fa ff ff       	call   12efa <printf>
        return;
   13417:	e9 12 01 00 00       	jmp    1352e <es1370_setup+0x249>
    }
    printf("BAR0: base=0x%x, size=0x%x, type=PIO\n", _iobase.base, _iobase.size);
   1341c:	50                   	push   %eax
   1341d:	ff 35 f4 b5 01 00    	push   0x1b5f4
   13423:	ff 35 f0 b5 01 00    	push   0x1b5f0
   13429:	68 a8 82 01 00       	push   $0x182a8
   1342e:	e8 c7 fa ff ff       	call   12efa <printf>

    u32 reg_ctrl = port_read_dword(_iobase.base + ES1370_REG_CONTROL);
   13433:	8b 0d f0 b5 01 00    	mov    0x1b5f0,%ecx
   13439:	89 ca                	mov    %ecx,%edx
   1343b:	ed                   	in     (%dx),%eax
   1343c:	89 c6                	mov    %eax,%esi
    u32 reg_status = port_read_dword(_iobase.base + ES1370_REG_STATUS);
   1343e:	8d 51 04             	lea    0x4(%ecx),%edx
   13441:	ed                   	in     (%dx),%eax
   13442:	89 c7                	mov    %eax,%edi
    u8 reg_mem_page = port_read_byte(_iobase.base + ES1370_REG_MEM_PAGE) & 0xf;
   13444:	8d 51 0c             	lea    0xc(%ecx),%edx
    __asm__ volatile("inb %1, %0"
   13447:	ec                   	in     (%dx),%al
   13448:	88 45 e4             	mov    %al,-0x1c(%ebp)
    u16 reg_codec = port_read_word(_iobase.base + ES1370_REG_CODEC);
   1344b:	8d 51 10             	lea    0x10(%ecx),%edx
    __asm__ volatile("inw %1, %0"
   1344e:	66 ed                	in     (%dx),%ax
   13450:	0f b7 d8             	movzwl %ax,%ebx
    u32 reg_serial = port_read_dword(_iobase.base + ES1370_REG_SERIAL);
   13453:	8d 51 20             	lea    0x20(%ecx),%edx
    __asm__ volatile("inl %1, %0"
   13456:	ed                   	in     (%dx),%eax

    printf("reg_ctrl=0x%x\nreg_status=0x%x\nreg_mem_page=0x%x\nreg_codec=0x%x\nreg_serial=0x%x\n",
   13457:	5a                   	pop    %edx
   13458:	59                   	pop    %ecx
   13459:	50                   	push   %eax
   1345a:	53                   	push   %ebx
   1345b:	8b 45 e4             	mov    -0x1c(%ebp),%eax
   1345e:	83 e0 0f             	and    $0xf,%eax
   13461:	50                   	push   %eax
   13462:	57                   	push   %edi
   13463:	56                   	push   %esi
   13464:	68 ce 82 01 00       	push   $0x182ce
   13469:	e8 8c fa ff ff       	call   12efa <printf>
           reg_ctrl, reg_status, reg_mem_page, reg_codec, reg_serial);

    pic_irq_set_entry(_irq, irq_handler);
   1346e:	83 c4 18             	add    $0x18,%esp
   13471:	68 af 32 01 00       	push   $0x132af
   13476:	0f b6 05 dc b5 01 00 	movzbl 0x1b5dc,%eax
   1347d:	50                   	push   %eax
   1347e:	e8 59 28 00 00       	call   15cdc <pic_irq_set_entry>

    u16 status = pci_conf_read_word(_dev_info.bus, _dev_info.dev, _dev_info.func, 2);
   13483:	6a 02                	push   $0x2
   13485:	ff 35 44 aa 01 00    	push   0x1aa44
   1348b:	ff 35 40 aa 01 00    	push   0x1aa40
   13491:	ff 35 3c aa 01 00    	push   0x1aa3c
   13497:	e8 e3 22 00 00       	call   1577f <pci_conf_read_word>
    pci_conf_write_word(_dev_info.bus, _dev_info.dev, _dev_info.func, 2, status | 0x5);
   1349c:	83 c4 14             	add    $0x14,%esp
   1349f:	83 c8 05             	or     $0x5,%eax
   134a2:	0f b7 c0             	movzwl %ax,%eax
   134a5:	50                   	push   %eax
   134a6:	6a 02                	push   $0x2
   134a8:	ff 35 44 aa 01 00    	push   0x1aa44
   134ae:	ff 35 40 aa 01 00    	push   0x1aa40
   134b4:	ff 35 3c aa 01 00    	push   0x1aa3c
   134ba:	e8 bd 23 00 00       	call   1587c <pci_conf_write_word>
    port_write_word(_iobase.base + ES1370_REG_CODEC, 0x10 << 8 | 0x2);
   134bf:	a1 f0 b5 01 00       	mov    0x1b5f0,%eax
   134c4:	8d 50 10             	lea    0x10(%eax),%edx
    __asm__ volatile("outw %0, %1"
   134c7:	b8 02 10 00 00       	mov    $0x1002,%eax
   134cc:	66 ef                	out    %ax,(%dx)
    __asm__ volatile("inw %1, %0"
   134ce:	66 ed                	in     (%dx),%ax
    delay_ms(1);
   134d0:	83 c4 14             	add    $0x14,%esp
   134d3:	6a 01                	push   $0x1
   134d5:	e8 bb 19 00 00       	call   14e95 <delay_ms>
    port_write_word(_iobase.base + ES1370_REG_CODEC, 0x10 << 8 | 0x3);
   134da:	a1 f0 b5 01 00       	mov    0x1b5f0,%eax
   134df:	8d 50 10             	lea    0x10(%eax),%edx
    __asm__ volatile("outw %0, %1"
   134e2:	b8 03 10 00 00       	mov    $0x1003,%eax
   134e7:	66 ef                	out    %ax,(%dx)
    __asm__ volatile("inw %1, %0"
   134e9:	66 ed                	in     (%dx),%ax
    delay_ms(1);
   134eb:	c7 04 24 01 00 00 00 	movl   $0x1,(%esp)
   134f2:	e8 9e 19 00 00       	call   14e95 <delay_ms>

    reset_mixer();

    _ctrl = (1 << 31) | (((1411200 / 8000 - 2) & 0x1fff) << 16) | (0x3 << 12) | (1 << 1);
   134f7:	c7 05 e4 b5 01 00 02 	movl   $0x80ae3002,0x1b5e4
   134fe:	30 ae 80 
    _sctrl = 0;
   13501:	c7 05 e0 b5 01 00 00 	movl   $0x0,0x1b5e0
   13508:	00 00 00 
    port_write_dword(_iobase.base + ES1370_REG_CONTROL, _ctrl);
   1350b:	8b 0d f0 b5 01 00    	mov    0x1b5f0,%ecx
    __asm__ volatile("outl %0, %1"
   13511:	b8 02 30 ae 80       	mov    $0x80ae3002,%eax
   13516:	89 ca                	mov    %ecx,%edx
   13518:	ef                   	out    %eax,(%dx)
    port_write_dword(_iobase.base + ES1370_REG_SERIAL, _sctrl);
   13519:	8d 51 20             	lea    0x20(%ecx),%edx
   1351c:	31 c0                	xor    %eax,%eax
   1351e:	ef                   	out    %eax,(%dx)
    port_write_byte(_iobase.base + ES1370_REG_UART_CTRL, 0);
   1351f:	8d 51 09             	lea    0x9(%ecx),%edx
    __asm__ volatile("outb %0, %1"
   13522:	ee                   	out    %al,(%dx)
    port_write_byte(_iobase.base + ES1370_REG_UART_RES, 0);
   13523:	8d 51 0a             	lea    0xa(%ecx),%edx
   13526:	ee                   	out    %al,(%dx)
    // port_write_dword(_iobase.base + ES1370_REG_STATUS)
    // port_write_dword(_iobase.base + ES1370_REG_MEM_PAGE, 0xd);

    _present = true;
   13527:	c6 05 e8 b5 01 00 01 	movb   $0x1,0x1b5e8
   1352e:	83 c4 10             	add    $0x10,%esp
}
   13531:	8d 65 f4             	lea    -0xc(%ebp),%esp
   13534:	5b                   	pop    %ebx
   13535:	5e                   	pop    %esi
   13536:	5f                   	pop    %edi
   13537:	5d                   	pop    %ebp
   13538:	c3                   	ret    

00013539 <es1370_play>:

bool es1370_play(void *laddr, u32 len, u16 freq, u8 width, u8 channels)
{
   13539:	55                   	push   %ebp
   1353a:	89 e5                	mov    %esp,%ebp
   1353c:	57                   	push   %edi
   1353d:	56                   	push   %esi
   1353e:	53                   	push   %ebx
   1353f:	83 ec 1c             	sub    $0x1c,%esp
   13542:	8b 5d 0c             	mov    0xc(%ebp),%ebx
   13545:	8b 45 10             	mov    0x10(%ebp),%eax
   13548:	89 45 e0             	mov    %eax,-0x20(%ebp)
   1354b:	8b 45 14             	mov    0x14(%ebp),%eax
   1354e:	8b 55 18             	mov    0x18(%ebp),%edx
    u32 mode = 0, count;

    if (!_present)
   13551:	8a 0d e8 b5 01 00    	mov    0x1b5e8,%cl
   13557:	88 4d e7             	mov    %cl,-0x19(%ebp)
   1355a:	84 c9                	test   %cl,%cl
   1355c:	0f 84 da 00 00 00    	je     1363c <es1370_play+0x103>
    {
        return false;
    }

    if (width == 16)
   13562:	3c 10                	cmp    $0x10,%al
   13564:	74 18                	je     1357e <es1370_play+0x45>
    u32 mode = 0, count;
   13566:	31 c9                	xor    %ecx,%ecx
    }

    switch (mode)
    {
    case 0: // MONO 8-bits
        count = len;
   13568:	89 df                	mov    %ebx,%edi
    if (channels > 1)
   1356a:	80 fa 01             	cmp    $0x1,%dl
   1356d:	76 1d                	jbe    1358c <es1370_play+0x53>
        mode |= 0x1;
   1356f:	83 c9 01             	or     $0x1,%ecx
    switch (mode)
   13572:	83 f9 03             	cmp    $0x3,%ecx
   13575:	75 11                	jne    13588 <es1370_play+0x4f>
    case 1: // STEREO 8-bits
    case 2: // MONO 16-bits
        count = len >> 1;
        break;
    case 3: // STEREO 16-bits
        count = len >> 2;
   13577:	89 df                	mov    %ebx,%edi
   13579:	c1 ef 02             	shr    $0x2,%edi
   1357c:	eb 0e                	jmp    1358c <es1370_play+0x53>
        mode |= 0x2;
   1357e:	b9 02 00 00 00       	mov    $0x2,%ecx
    if (channels > 1)
   13583:	80 fa 01             	cmp    $0x1,%dl
   13586:	77 e7                	ja     1356f <es1370_play+0x36>
        count = len >> 1;
   13588:	89 df                	mov    %ebx,%edi
   1358a:	d1 ef                	shr    %edi
        break;
    }

    _ctrl &= ~(1 << 5);
    port_write_dword(_iobase.base + ES1370_REG_CONTROL, _ctrl);
   1358c:	8b 35 f0 b5 01 00    	mov    0x1b5f0,%esi
    _ctrl &= ~(1 << 5);
   13592:	a1 e4 b5 01 00       	mov    0x1b5e4,%eax
   13597:	83 e0 df             	and    $0xffffffdf,%eax
    __asm__ volatile("outl %0, %1"
   1359a:	89 f2                	mov    %esi,%edx
   1359c:	ef                   	out    %eax,(%dx)
    port_write_dword(_iobase.base + ES1370_REG_MEM_PAGE, 0xc);
   1359d:	8d 56 0c             	lea    0xc(%esi),%edx
   135a0:	b8 0c 00 00 00       	mov    $0xc,%eax
   135a5:	ef                   	out    %eax,(%dx)
    port_write_dword(_iobase.base + ES1370_REG_DAC2_FRAME, (u32)laddr);
   135a6:	8d 56 38             	lea    0x38(%esi),%edx
   135a9:	8b 45 08             	mov    0x8(%ebp),%eax
   135ac:	ef                   	out    %eax,(%dx)
    port_write_dword(_iobase.base + ES1370_REG_DAC2_SIZE, (len >> 2) - 1);
   135ad:	c1 eb 02             	shr    $0x2,%ebx
   135b0:	8d 43 ff             	lea    -0x1(%ebx),%eax
   135b3:	8d 56 3c             	lea    0x3c(%esi),%edx
   135b6:	ef                   	out    %eax,(%dx)
    _sctrl &= ~((0x7 << 19) | (0x7 << 16) | (1 << 14) | (1 << 12) | (1 << 6) || (0x3 << 2));
   135b7:	8b 15 e0 b5 01 00    	mov    0x1b5e0,%edx
   135bd:	83 e2 fe             	and    $0xfffffffe,%edx
    _sctrl |= ((mode & 2 ? 2 : 1) << 19) | (0 << 16) | (1 << 9) | ((mode & 0x3) << 2);
   135c0:	89 c8                	mov    %ecx,%eax
   135c2:	83 e0 02             	and    $0x2,%eax
   135c5:	83 f8 01             	cmp    $0x1,%eax
   135c8:	19 c0                	sbb    %eax,%eax
   135ca:	25 00 00 f8 ff       	and    $0xfff80000,%eax
   135cf:	05 00 02 10 00       	add    $0x100200,%eax
   135d4:	c1 e1 02             	shl    $0x2,%ecx
   135d7:	09 d1                	or     %edx,%ecx
   135d9:	09 c8                	or     %ecx,%eax
   135db:	a3 e0 b5 01 00       	mov    %eax,0x1b5e0
    port_write_dword(_iobase.base + ES1370_REG_SERIAL, _sctrl);
   135e0:	8d 56 20             	lea    0x20(%esi),%edx
   135e3:	ef                   	out    %eax,(%dx)
    port_write_dword(_iobase.base + ES1370_REG_DAC2_COUNT, count);
   135e4:	8d 56 28             	lea    0x28(%esi),%edx
   135e7:	89 f8                	mov    %edi,%eax
   135e9:	ef                   	out    %eax,(%dx)

    _ctrl &= ~(0x1fff << 16);
    _ctrl |= (((1411200 / freq - 2) & 0x1fff) << 16);
   135ea:	0f b7 4d e0          	movzwl -0x20(%ebp),%ecx
   135ee:	b8 80 88 15 00       	mov    $0x158880,%eax
   135f3:	99                   	cltd   
   135f4:	f7 f9                	idiv   %ecx
   135f6:	83 e8 02             	sub    $0x2,%eax
   135f9:	c1 e0 10             	shl    $0x10,%eax
   135fc:	25 00 00 ff 1f       	and    $0x1fff0000,%eax
    _ctrl &= ~(0x1fff << 16);
   13601:	8b 15 e4 b5 01 00    	mov    0x1b5e4,%edx
   13607:	81 e2 df ff 00 e0    	and    $0xe000ffdf,%edx
    _ctrl |= (((1411200 / freq - 2) & 0x1fff) << 16);
   1360d:	09 d0                	or     %edx,%eax
   1360f:	a3 e4 b5 01 00       	mov    %eax,0x1b5e4
    // default:
    //     printf("\n[ES1370] unsupported freq: %d\n", freq);
    //     return false;
    // }

    pic_irq_enable(_irq);
   13614:	83 ec 0c             	sub    $0xc,%esp
   13617:	0f b6 05 dc b5 01 00 	movzbl 0x1b5dc,%eax
   1361e:	50                   	push   %eax
   1361f:	e8 69 26 00 00       	call   15c8d <pic_irq_enable>

    port_write_dword(_iobase.base + ES1370_REG_CONTROL, _ctrl);
   13624:	a1 e4 b5 01 00       	mov    0x1b5e4,%eax
   13629:	8b 15 f0 b5 01 00    	mov    0x1b5f0,%edx
   1362f:	ef                   	out    %eax,(%dx)

    _ctrl |= (1 << 5);
   13630:	83 c8 20             	or     $0x20,%eax
   13633:	a3 e4 b5 01 00       	mov    %eax,0x1b5e4
   13638:	ef                   	out    %eax,(%dx)
    port_write_dword(_iobase.base + ES1370_REG_CONTROL, _ctrl);

    return true;
   13639:	83 c4 10             	add    $0x10,%esp
}
   1363c:	8a 45 e7             	mov    -0x19(%ebp),%al
   1363f:	8d 65 f4             	lea    -0xc(%ebp),%esp
   13642:	5b                   	pop    %ebx
   13643:	5e                   	pop    %esi
   13644:	5f                   	pop    %edi
   13645:	5d                   	pop    %ebp
   13646:	c3                   	ret    

00013647 <_irq_handler>:
}

static void _irq_handler(void)
{
    // print_str("fdc irq handler triggered!\n");
    ++_irq_trigger;
   13647:	a0 04 b6 01 00       	mov    0x1b604,%al
   1364c:	40                   	inc    %eax
   1364d:	a2 04 b6 01 00       	mov    %al,0x1b604
}
   13652:	c3                   	ret    

00013653 <wait_fdc_ready>:

static bool wait_fdc_ready(void)
{
   13653:	55                   	push   %ebp
   13654:	89 e5                	mov    %esp,%ebp
   13656:	53                   	push   %ebx
   13657:	50                   	push   %eax
    s8 times = 100;
   13658:	b3 64                	mov    $0x64,%bl
    u8 msr;
    do
    {
        delay_ms(10);
   1365a:	83 ec 0c             	sub    $0xc,%esp
   1365d:	6a 0a                	push   $0xa
   1365f:	e8 31 18 00 00       	call   14e95 <delay_ms>
    __asm__ volatile("inb %1, %0"
   13664:	ba f4 03 00 00       	mov    $0x3f4,%edx
   13669:	ec                   	in     (%dx),%al
        msr = port_read_byte(FDC_PORT_MSR);
    } while (times-- && (msr & FDC_MSR_BUSY) && !(msr & FDC_MSR_READY));
   1366a:	4b                   	dec    %ebx
   1366b:	83 c4 10             	add    $0x10,%esp
   1366e:	80 fb ff             	cmp    $0xff,%bl
   13671:	74 08                	je     1367b <wait_fdc_ready+0x28>
   13673:	a8 10                	test   $0x10,%al
   13675:	74 04                	je     1367b <wait_fdc_ready+0x28>
   13677:	84 c0                	test   %al,%al
   13679:	79 df                	jns    1365a <wait_fdc_ready+0x7>

    return times >= 0;
   1367b:	88 d8                	mov    %bl,%al
   1367d:	f7 d0                	not    %eax
   1367f:	c0 e8 07             	shr    $0x7,%al
}
   13682:	8b 5d fc             	mov    -0x4(%ebp),%ebx
   13685:	c9                   	leave  
   13686:	c3                   	ret    

00013687 <wait_irq_ready>:

static bool wait_irq_ready(void)
{
   13687:	55                   	push   %ebp
   13688:	89 e5                	mov    %esp,%ebp
   1368a:	53                   	push   %ebx
   1368b:	50                   	push   %eax
   1368c:	b3 65                	mov    $0x65,%bl
    s8 times = 100;

    do
    {
        delay_ms(10);
   1368e:	83 ec 0c             	sub    $0xc,%esp
   13691:	6a 0a                	push   $0xa
   13693:	e8 fd 17 00 00       	call   14e95 <delay_ms>
    } while (times-- && !_irq_trigger);
   13698:	83 c4 10             	add    $0x10,%esp
   1369b:	fe cb                	dec    %bl
   1369d:	74 09                	je     136a8 <wait_irq_ready+0x21>
   1369f:	a0 04 b6 01 00       	mov    0x1b604,%al
   136a4:	84 c0                	test   %al,%al
   136a6:	74 e6                	je     1368e <wait_irq_ready+0x7>

    if (_irq_trigger)
   136a8:	8a 15 04 b6 01 00    	mov    0x1b604,%dl
    {
        --_irq_trigger;
        return true;
    }

    return false;
   136ae:	31 c0                	xor    %eax,%eax
    if (_irq_trigger)
   136b0:	84 d2                	test   %dl,%dl
   136b2:	74 0d                	je     136c1 <wait_irq_ready+0x3a>
        --_irq_trigger;
   136b4:	a0 04 b6 01 00       	mov    0x1b604,%al
   136b9:	48                   	dec    %eax
   136ba:	a2 04 b6 01 00       	mov    %al,0x1b604
   136bf:	b0 01                	mov    $0x1,%al
}
   136c1:	8b 5d fc             	mov    -0x4(%ebp),%ebx
   136c4:	c9                   	leave  
   136c5:	c3                   	ret    

000136c6 <floppy_dumpinfo>:

void floppy_dumpinfo(void)
{
   136c6:	55                   	push   %ebp
   136c7:	89 e5                	mov    %esp,%ebp
   136c9:	83 ec 08             	sub    $0x8,%esp
    if (!_drive_count)
   136cc:	0f b6 05 08 b6 01 00 	movzbl 0x1b608,%eax
   136d3:	84 c0                	test   %al,%al
   136d5:	75 2a                	jne    13701 <floppy_dumpinfo+0x3b>
    {
        console_set_color(COLOR_NORMAL_BG, COLOR_YELLOW);
   136d7:	50                   	push   %eax
   136d8:	50                   	push   %eax
   136d9:	68 00 fe fe 00       	push   $0xfefe00
   136de:	6a 00                	push   $0x0
   136e0:	e8 ab f0 ff ff       	call   12790 <console_set_color>
        print_str("no floppy drive installed!\n");
   136e5:	c7 04 24 28 83 01 00 	movl   $0x18328,(%esp)
   136ec:	e8 c2 f7 ff ff       	call   12eb3 <print_str>
        console_set_color(COLOR_NORMAL_BG, COLOR_NORMAL_FG);
   136f1:	58                   	pop    %eax
   136f2:	5a                   	pop    %edx
   136f3:	68 d3 d3 d3 00       	push   $0xd3d3d3
   136f8:	6a 00                	push   $0x0
   136fa:	e8 91 f0 ff ff       	call   12790 <console_set_color>
        return;
   136ff:	eb 58                	jmp    13759 <floppy_dumpinfo+0x93>
    }

    printf("fd_count: %d\n", _drive_count);
   13701:	51                   	push   %ecx
   13702:	51                   	push   %ecx
   13703:	50                   	push   %eax
   13704:	68 44 83 01 00       	push   $0x18344
   13709:	e8 ec f7 ff ff       	call   12efa <printf>

    u8 type[2];
    type[1] = cmos_read_byte(CMOS_REG_FLOPPY_DRIVE_TYPES);
   1370e:	c7 04 24 10 00 00 00 	movl   $0x10,(%esp)
   13715:	e8 df eb ff ff       	call   122f9 <cmos_read_byte>
            0010 - 1.2M
            0011 - 720k
            0100 - 1.44M
            0101 - 2.88M
        */
    type[0] = type[1] >> 4;
   1371a:	88 c2                	mov    %al,%dl
   1371c:	c0 ea 04             	shr    $0x4,%dl
    type[1] &= 0xf;
   1371f:	83 e0 0f             	and    $0xf,%eax

    static const char *fd_type[] = {"none", "360k", "1.2M", "720k", "1.44M", "2.88M"};

    printf("fd0_type: %s\nfd1_type: %s\n",
   13722:	83 c4 10             	add    $0x10,%esp
   13725:	b9 1e 83 01 00       	mov    $0x1831e,%ecx
   1372a:	3c 05                	cmp    $0x5,%al
   1372c:	77 0a                	ja     13738 <floppy_dumpinfo+0x72>
           type[0] > 5 ? fd_type[0] : fd_type[type[0]],
           type[1] > 5 ? fd_type[1] : fd_type[type[1]]);
   1372e:	0f b6 c0             	movzbl %al,%eax
    printf("fd0_type: %s\nfd1_type: %s\n",
   13731:	8b 0c 85 8c 83 01 00 	mov    0x1838c(,%eax,4),%ecx
   13738:	b8 23 83 01 00       	mov    $0x18323,%eax
   1373d:	80 fa 05             	cmp    $0x5,%dl
   13740:	77 0a                	ja     1374c <floppy_dumpinfo+0x86>
           type[0] > 5 ? fd_type[0] : fd_type[type[0]],
   13742:	0f b6 d2             	movzbl %dl,%edx
    printf("fd0_type: %s\nfd1_type: %s\n",
   13745:	8b 04 95 8c 83 01 00 	mov    0x1838c(,%edx,4),%eax
   1374c:	52                   	push   %edx
   1374d:	51                   	push   %ecx
   1374e:	50                   	push   %eax
   1374f:	68 52 83 01 00       	push   $0x18352
   13754:	e8 a1 f7 ff ff       	call   12efa <printf>
   13759:	83 c4 10             	add    $0x10,%esp
}
   1375c:	c9                   	leave  
   1375d:	c3                   	ret    

0001375e <floppy_setup>:

void floppy_setup(void)
{
   1375e:	55                   	push   %ebp
   1375f:	89 e5                	mov    %esp,%ebp
   13761:	83 ec 14             	sub    $0x14,%esp
    u8 equ = cmos_read_byte(CMOS_REG_EQUIPMENT_INFO);
   13764:	6a 14                	push   $0x14
   13766:	e8 8e eb ff ff       	call   122f9 <cmos_read_byte>
    CMOS_REG_EQUIPMENT_INFO
    Bits 6 & 7  No. Of Floppy Drives
            00=1, 01=2, 10=3, 11=4
    Bit 0  Floppy Drive(s) Available
    */
    _drive_count = (equ >> 6) + (equ & 1);
   1376b:	88 c2                	mov    %al,%dl
   1376d:	c0 ea 06             	shr    $0x6,%dl
   13770:	83 e0 01             	and    $0x1,%eax
   13773:	01 d0                	add    %edx,%eax
   13775:	a2 08 b6 01 00       	mov    %al,0x1b608

    if (!_drive_count)
   1377a:	83 c4 10             	add    $0x10,%esp
   1377d:	84 c0                	test   %al,%al
   1377f:	74 0f                	je     13790 <floppy_setup+0x32>
    _fdc_dor = dor;
   13781:	c6 05 05 b6 01 00 00 	movb   $0x0,0x1b605
    __asm__ volatile("outb %0, %1"
   13788:	31 c0                	xor    %eax,%eax
   1378a:	ba f2 03 00 00       	mov    $0x3f2,%edx
   1378f:	ee                   	out    %al,(%dx)
    }

    // for(u8 drive = 0; drive < _drive_count; ++drive)
    // write_dor(drive);
    write_dor(0);
}
   13790:	c9                   	leave  
   13791:	c3                   	ret    

00013792 <floppy_prepare>:

bool floppy_prepare(u8 fd_n, bool transfer)
{
   13792:	55                   	push   %ebp
   13793:	89 e5                	mov    %esp,%ebp
   13795:	56                   	push   %esi
   13796:	53                   	push   %ebx
   13797:	83 ec 10             	sub    $0x10,%esp
   1379a:	8b 5d 08             	mov    0x8(%ebp),%ebx
    if (fd_n >= _drive_count)
   1379d:	38 1d 08 b6 01 00    	cmp    %bl,0x1b608
   137a3:	0f 86 94 00 00 00    	jbe    1383d <floppy_prepare+0xab>
        return false;

    _drive_type[1] = cmos_read_byte(CMOS_REG_FLOPPY_DRIVE_TYPES);
   137a9:	83 ec 0c             	sub    $0xc,%esp
   137ac:	6a 10                	push   $0x10
   137ae:	e8 46 eb ff ff       	call   122f9 <cmos_read_byte>
            0010 - 1.2M
            0011 - 720k
            0100 - 1.44M
            0101 - 2.88M
        */
    _drive_type[0] = _drive_type[1] >> 4;
   137b3:	88 c2                	mov    %al,%dl
   137b5:	c0 ea 04             	shr    $0x4,%dl
   137b8:	88 15 06 b6 01 00    	mov    %dl,0x1b606
    _drive_type[1] &= 0xf;
   137be:	83 e0 0f             	and    $0xf,%eax
   137c1:	a2 07 b6 01 00       	mov    %al,0x1b607

    if (!_drive_type[fd_n])
   137c6:	0f b6 f3             	movzbl %bl,%esi
   137c9:	83 c4 10             	add    $0x10,%esp
   137cc:	80 be 06 b6 01 00 00 	cmpb   $0x0,0x1b606(%esi)
   137d3:	74 68                	je     1383d <floppy_prepare+0xab>
    {
        return false;
    }

    _irq_trigger = 0;
   137d5:	c6 05 04 b6 01 00 00 	movb   $0x0,0x1b604
    pic_irq_set_entry(FDC_IRQ, _irq_handler);
   137dc:	50                   	push   %eax
   137dd:	50                   	push   %eax
   137de:	68 47 36 01 00       	push   $0x13647
   137e3:	6a 06                	push   $0x6
   137e5:	e8 f2 24 00 00       	call   15cdc <pic_irq_set_entry>
    pic_irq_enable(FDC_IRQ);
   137ea:	c7 04 24 06 00 00 00 	movl   $0x6,(%esp)
   137f1:	e8 97 24 00 00       	call   15c8d <pic_irq_enable>
    write_dor((FDC_DOR_MOTOR_A << fd_n) | FDC_DOR_DMA_IRQ | fd_n);
   137f6:	b8 10 00 00 00       	mov    $0x10,%eax
   137fb:	89 f1                	mov    %esi,%ecx
   137fd:	d3 e0                	shl    %cl,%eax
   137ff:	09 d8                	or     %ebx,%eax
   13801:	83 c8 08             	or     $0x8,%eax
    _fdc_dor = dor;
   13804:	a2 05 b6 01 00       	mov    %al,0x1b605
   13809:	ba f2 03 00 00       	mov    $0x3f2,%edx
   1380e:	ee                   	out    %al,(%dx)
   1380f:	89 55 f4             	mov    %edx,-0xc(%ebp)
    // mask_dor((FDC_DOR_MOTOR_A << fd_n) | FDC_DOR_DMA_IRQ | fd_n, FDC_DOR_RESET);
    delay_ms(100);
   13812:	c7 04 24 64 00 00 00 	movl   $0x64,(%esp)
   13819:	e8 77 16 00 00       	call   14e95 <delay_ms>
    write_dor((read_dor() & ~off) | on);
   1381e:	a0 05 b6 01 00       	mov    0x1b605,%al
   13823:	83 c8 04             	or     $0x4,%eax
    _fdc_dor = dor;
   13826:	a2 05 b6 01 00       	mov    %al,0x1b605
   1382b:	8b 55 f4             	mov    -0xc(%ebp),%edx
   1382e:	ee                   	out    %al,(%dx)
    mask_dor(FDC_DOR_RESET, 0);
    return wait_irq_ready();
   1382f:	83 c4 10             	add    $0x10,%esp
}
   13832:	8d 65 f8             	lea    -0x8(%ebp),%esp
   13835:	5b                   	pop    %ebx
   13836:	5e                   	pop    %esi
   13837:	5d                   	pop    %ebp
    return wait_irq_ready();
   13838:	e9 4a fe ff ff       	jmp    13687 <wait_irq_ready>
}
   1383d:	31 c0                	xor    %eax,%eax
   1383f:	8d 65 f8             	lea    -0x8(%ebp),%esp
   13842:	5b                   	pop    %ebx
   13843:	5e                   	pop    %esi
   13844:	5d                   	pop    %ebp
   13845:	c3                   	ret    

00013846 <floppy_release>:

bool floppy_release(u8 fd_n)
{
   13846:	55                   	push   %ebp
   13847:	89 e5                	mov    %esp,%ebp
   13849:	53                   	push   %ebx
   1384a:	83 ec 14             	sub    $0x14,%esp
   1384d:	8b 5d 08             	mov    0x8(%ebp),%ebx
    if (fd_n >= _drive_count)
   13850:	31 c0                	xor    %eax,%eax
   13852:	38 1d 08 b6 01 00    	cmp    %bl,0x1b608
   13858:	76 6d                	jbe    138c7 <floppy_release+0x81>
    write_dor((read_dor() & ~off) | on);
   1385a:	a0 05 b6 01 00       	mov    0x1b605,%al
   1385f:	83 e0 fb             	and    $0xfffffffb,%eax
    _fdc_dor = dor;
   13862:	a2 05 b6 01 00       	mov    %al,0x1b605
   13867:	ba f2 03 00 00       	mov    $0x3f2,%edx
   1386c:	ee                   	out    %al,(%dx)
   1386d:	89 55 f4             	mov    %edx,-0xc(%ebp)
    {
        return false;
    }

    mask_dor(0, FDC_DOR_RESET);
    delay_ms(100);
   13870:	83 ec 0c             	sub    $0xc,%esp
   13873:	6a 64                	push   $0x64
   13875:	e8 1b 16 00 00       	call   14e95 <delay_ms>
    if (wait_fdc_ready())
   1387a:	e8 d4 fd ff ff       	call   13653 <wait_fdc_ready>
   1387f:	83 c4 10             	add    $0x10,%esp
   13882:	84 c0                	test   %al,%al
   13884:	8b 55 f4             	mov    -0xc(%ebp),%edx
   13887:	74 2f                	je     138b8 <floppy_release+0x72>
    {
        mask_dor(FDC_DOR_RESET, (FDC_DOR_MOTOR_A << fd_n) | FDC_DOR_DMA_IRQ);
   13889:	b8 10 00 00 00       	mov    $0x10,%eax
   1388e:	88 d9                	mov    %bl,%cl
   13890:	d3 e0                	shl    %cl,%eax
   13892:	83 c8 08             	or     $0x8,%eax
    write_dor((read_dor() & ~off) | on);
   13895:	f7 d0                	not    %eax
   13897:	22 05 05 b6 01 00    	and    0x1b605,%al
   1389d:	83 c8 04             	or     $0x4,%eax
    _fdc_dor = dor;
   138a0:	a2 05 b6 01 00       	mov    %al,0x1b605
   138a5:	ee                   	out    %al,(%dx)
        delay_ms(50);
   138a6:	83 ec 0c             	sub    $0xc,%esp
   138a9:	6a 32                	push   $0x32
   138ab:	e8 e5 15 00 00       	call   14e95 <delay_ms>
        wait_irq_ready();
   138b0:	e8 d2 fd ff ff       	call   13687 <wait_irq_ready>
   138b5:	83 c4 10             	add    $0x10,%esp
    }
    pic_irq_remove_entry(FDC_IRQ);
   138b8:	83 ec 0c             	sub    $0xc,%esp
   138bb:	6a 06                	push   $0x6
   138bd:	e8 48 24 00 00       	call   15d0a <pic_irq_remove_entry>
    return true;
   138c2:	83 c4 10             	add    $0x10,%esp
   138c5:	b0 01                	mov    $0x1,%al
}
   138c7:	8b 5d fc             	mov    -0x4(%ebp),%ebx
   138ca:	c9                   	leave  
   138cb:	c3                   	ret    

000138cc <floppy_cmd_readid>:

void floppy_cmd_readid(void)
{
   138cc:	55                   	push   %ebp
   138cd:	89 e5                	mov    %esp,%ebp
   138cf:	56                   	push   %esi
   138d0:	53                   	push   %ebx
    u8 send_len = 2, recv_len = 7;

    for (; send_len; --send_len)
    {
        if (!wait_fdc_ready())
   138d1:	e8 7d fd ff ff       	call   13653 <wait_fdc_ready>
   138d6:	84 c0                	test   %al,%al
   138d8:	74 7b                	je     13955 <floppy_cmd_readid+0x89>
    __asm__ volatile("inb %1, %0"
   138da:	be f4 03 00 00       	mov    $0x3f4,%esi
   138df:	89 f2                	mov    %esi,%edx
   138e1:	ec                   	in     (%dx),%al
            break;

        if (port_read_byte(FDC_PORT_MSR) & FDC_MSR_IOD)
   138e2:	a8 40                	test   $0x40,%al
   138e4:	75 6f                	jne    13955 <floppy_cmd_readid+0x89>
    __asm__ volatile("outb %0, %1"
   138e6:	bb f5 03 00 00       	mov    $0x3f5,%ebx
   138eb:	b0 4a                	mov    $0x4a,%al
   138ed:	89 da                	mov    %ebx,%edx
   138ef:	ee                   	out    %al,(%dx)
        if (!wait_fdc_ready())
   138f0:	e8 5e fd ff ff       	call   13653 <wait_fdc_ready>
   138f5:	84 c0                	test   %al,%al
   138f7:	74 5c                	je     13955 <floppy_cmd_readid+0x89>
    __asm__ volatile("inb %1, %0"
   138f9:	89 f2                	mov    %esi,%edx
   138fb:	ec                   	in     (%dx),%al
        if (port_read_byte(FDC_PORT_MSR) & FDC_MSR_IOD)
   138fc:	24 40                	and    $0x40,%al
   138fe:	75 55                	jne    13955 <floppy_cmd_readid+0x89>
    __asm__ volatile("outb %0, %1"
   13900:	89 da                	mov    %ebx,%edx
   13902:	ee                   	out    %al,(%dx)
            port_write_byte(FDC_PORT_DATA, 0);
    }

    if (!send_len)
    { // in BOCHS irq not triggered
        wait_irq_ready();
   13903:	e8 7f fd ff ff       	call   13687 <wait_irq_ready>
        print_str("result: ");
   13908:	83 ec 0c             	sub    $0xc,%esp
   1390b:	68 6d 83 01 00       	push   $0x1836d
   13910:	e8 9e f5 ff ff       	call   12eb3 <print_str>
   13915:	83 c4 10             	add    $0x10,%esp
   13918:	b3 07                	mov    $0x7,%bl
        for (; recv_len; --recv_len)
        {
            if (!wait_fdc_ready())
   1391a:	e8 34 fd ff ff       	call   13653 <wait_fdc_ready>
   1391f:	84 c0                	test   %al,%al
   13921:	74 32                	je     13955 <floppy_cmd_readid+0x89>
    __asm__ volatile("inb %1, %0"
   13923:	ba f4 03 00 00       	mov    $0x3f4,%edx
   13928:	ec                   	in     (%dx),%al
                break;

            if (!(port_read_byte(FDC_PORT_MSR) & FDC_MSR_IOD))
   13929:	a8 40                	test   $0x40,%al
   1392b:	74 28                	je     13955 <floppy_cmd_readid+0x89>
   1392d:	ba f5 03 00 00       	mov    $0x3f5,%edx
   13932:	ec                   	in     (%dx),%al
                break;

            print_hex(port_read_byte(FDC_PORT_DATA), 2);
   13933:	52                   	push   %edx
   13934:	52                   	push   %edx
   13935:	6a 02                	push   $0x2
   13937:	0f b6 c0             	movzbl %al,%eax
   1393a:	50                   	push   %eax
   1393b:	e8 96 f6 ff ff       	call   12fd6 <print_hex>
            print_char(' ');
   13940:	c7 04 24 20 00 00 00 	movl   $0x20,(%esp)
   13947:	e8 16 f1 ff ff       	call   12a62 <print_char>
        for (; recv_len; --recv_len)
   1394c:	83 c4 10             	add    $0x10,%esp
   1394f:	fe cb                	dec    %bl
   13951:	75 c7                	jne    1391a <floppy_cmd_readid+0x4e>
   13953:	eb 10                	jmp    13965 <floppy_cmd_readid+0x99>
        }
    }

    if (send_len || recv_len)
    {
        print_str("failed!");
   13955:	83 ec 0c             	sub    $0xc,%esp
   13958:	68 40 93 01 00       	push   $0x19340
   1395d:	e8 51 f5 ff ff       	call   12eb3 <print_str>
   13962:	83 c4 10             	add    $0x10,%esp
    }
    print_char('\n');
   13965:	83 ec 0c             	sub    $0xc,%esp
   13968:	6a 0a                	push   $0xa
   1396a:	e8 f3 f0 ff ff       	call   12a62 <print_char>
}
   1396f:	83 c4 10             	add    $0x10,%esp
   13972:	8d 65 f8             	lea    -0x8(%ebp),%esp
   13975:	5b                   	pop    %ebx
   13976:	5e                   	pop    %esi
   13977:	5d                   	pop    %ebp
   13978:	c3                   	ret    

00013979 <floppy_cmd_version>:

void floppy_cmd_version(void)
{
   13979:	55                   	push   %ebp
   1397a:	89 e5                	mov    %esp,%ebp
   1397c:	56                   	push   %esi
   1397d:	53                   	push   %ebx
    u8 send_len = 1, recv_len = 1;

    for (; send_len; --send_len)
    {
        if (!wait_fdc_ready())
   1397e:	e8 d0 fc ff ff       	call   13653 <wait_fdc_ready>
   13983:	84 c0                	test   %al,%al
   13985:	74 59                	je     139e0 <floppy_cmd_version+0x67>
   13987:	be f4 03 00 00       	mov    $0x3f4,%esi
   1398c:	89 f2                	mov    %esi,%edx
   1398e:	ec                   	in     (%dx),%al
            break;

        if (port_read_byte(FDC_PORT_MSR) & FDC_MSR_IOD)
   1398f:	a8 40                	test   $0x40,%al
   13991:	75 4d                	jne    139e0 <floppy_cmd_version+0x67>
    __asm__ volatile("outb %0, %1"
   13993:	bb f5 03 00 00       	mov    $0x3f5,%ebx
   13998:	b0 10                	mov    $0x10,%al
   1399a:	89 da                	mov    %ebx,%edx
   1399c:	ee                   	out    %al,(%dx)
            port_write_byte(FDC_PORT_DATA, FDC_CMD_VERSION);
    }

    if (!send_len)
    { // in BOCHS irq not triggered
        wait_irq_ready();
   1399d:	e8 e5 fc ff ff       	call   13687 <wait_irq_ready>
        print_str("result: ");
   139a2:	83 ec 0c             	sub    $0xc,%esp
   139a5:	68 6d 83 01 00       	push   $0x1836d
   139aa:	e8 04 f5 ff ff       	call   12eb3 <print_str>
        for (; recv_len; --recv_len)
        {
            if (!wait_fdc_ready())
   139af:	e8 9f fc ff ff       	call   13653 <wait_fdc_ready>
   139b4:	83 c4 10             	add    $0x10,%esp
   139b7:	84 c0                	test   %al,%al
   139b9:	74 25                	je     139e0 <floppy_cmd_version+0x67>
    __asm__ volatile("inb %1, %0"
   139bb:	89 f2                	mov    %esi,%edx
   139bd:	ec                   	in     (%dx),%al
                break;

            if (!(port_read_byte(FDC_PORT_MSR) & FDC_MSR_IOD))
   139be:	a8 40                	test   $0x40,%al
   139c0:	74 1e                	je     139e0 <floppy_cmd_version+0x67>
   139c2:	89 da                	mov    %ebx,%edx
   139c4:	ec                   	in     (%dx),%al
                break;

            print_hex(port_read_byte(FDC_PORT_DATA), 2);
   139c5:	52                   	push   %edx
   139c6:	52                   	push   %edx
   139c7:	6a 02                	push   $0x2
   139c9:	0f b6 c0             	movzbl %al,%eax
   139cc:	50                   	push   %eax
   139cd:	e8 04 f6 ff ff       	call   12fd6 <print_hex>
            print_char(' ');
   139d2:	c7 04 24 20 00 00 00 	movl   $0x20,(%esp)
   139d9:	e8 84 f0 ff ff       	call   12a62 <print_char>
        }
    }

    if (send_len || recv_len)
   139de:	eb 0d                	jmp    139ed <floppy_cmd_version+0x74>
    {
        print_str("failed!");
   139e0:	83 ec 0c             	sub    $0xc,%esp
   139e3:	68 40 93 01 00       	push   $0x19340
   139e8:	e8 c6 f4 ff ff       	call   12eb3 <print_str>
   139ed:	83 c4 10             	add    $0x10,%esp
    }
    print_char('\n');
   139f0:	83 ec 0c             	sub    $0xc,%esp
   139f3:	6a 0a                	push   $0xa
   139f5:	e8 68 f0 ff ff       	call   12a62 <print_char>
}
   139fa:	83 c4 10             	add    $0x10,%esp
   139fd:	8d 65 f8             	lea    -0x8(%ebp),%esp
   13a00:	5b                   	pop    %ebx
   13a01:	5e                   	pop    %esi
   13a02:	5d                   	pop    %ebp
   13a03:	c3                   	ret    

00013a04 <gdt_set_entry>:
#include "gdt.h"

void gdt_set_entry(u32 seg, const struct gdt_entry *entry)
{
   13a04:	55                   	push   %ebp
   13a05:	89 e5                	mov    %esp,%ebp
   13a07:	53                   	push   %ebx
   13a08:	83 ec 10             	sub    $0x10,%esp
   13a0b:	8b 55 0c             	mov    0xc(%ebp),%edx
					 : "memory");
}

inline static void sgdt(struct gdt_ptr48 *ptr)
{
	__asm__ __volatile__("sgdt (%0)\n"
   13a0e:	8d 45 f6             	lea    -0xa(%ebp),%eax
   13a11:	0f 01 00             	sgdtl  (%eax)
    struct gdt_ptr48 gdt_ptr;
    sgdt(&gdt_ptr);

    u16 *entry_ptr = (u16*)(gdt_ptr.base + (seg << 3));
   13a14:	8b 4d 08             	mov    0x8(%ebp),%ecx
   13a17:	8b 45 f8             	mov    -0x8(%ebp),%eax
   13a1a:	8d 0c c8             	lea    (%eax,%ecx,8),%ecx
    entry_ptr[0] = entry->limit;
   13a1d:	8b 42 04             	mov    0x4(%edx),%eax
   13a20:	66 89 01             	mov    %ax,(%ecx)
	entry_ptr[1] = entry->base;
   13a23:	8b 02                	mov    (%edx),%eax
   13a25:	66 89 41 02          	mov    %ax,0x2(%ecx)
	entry_ptr[2] = ((entry->attr & 0xff) << 8) | ((entry->base >> 16) & 0xff);
   13a29:	0f b6 42 02          	movzbl 0x2(%edx),%eax
   13a2d:	8b 5a 08             	mov    0x8(%edx),%ebx
   13a30:	c1 e3 08             	shl    $0x8,%ebx
   13a33:	09 d8                	or     %ebx,%eax
   13a35:	66 89 41 04          	mov    %ax,0x4(%ecx)
	entry_ptr[3] = ((entry->base >> 16) & 0xff00) | ((entry->attr >> 4) & 0xf0) | (entry->limit >> 16);
   13a39:	8b 02                	mov    (%edx),%eax
   13a3b:	c1 e8 10             	shr    $0x10,%eax
   13a3e:	30 c0                	xor    %al,%al
   13a40:	8b 5a 08             	mov    0x8(%edx),%ebx
   13a43:	c1 eb 04             	shr    $0x4,%ebx
   13a46:	66 81 e3 f0 00       	and    $0xf0,%bx
   13a4b:	09 d8                	or     %ebx,%eax
   13a4d:	66 0b 42 06          	or     0x6(%edx),%ax
   13a51:	66 89 41 06          	mov    %ax,0x6(%ecx)
}
   13a55:	83 c4 10             	add    $0x10,%esp
   13a58:	5b                   	pop    %ebx
   13a59:	5d                   	pop    %ebp
   13a5a:	c3                   	ret    

00013a5b <gdt_get_entry>:

void gdt_get_entry(u32 seg, struct gdt_entry *entry)
{
   13a5b:	55                   	push   %ebp
   13a5c:	89 e5                	mov    %esp,%ebp
   13a5e:	56                   	push   %esi
   13a5f:	53                   	push   %ebx
   13a60:	83 ec 10             	sub    $0x10,%esp
   13a63:	8b 55 0c             	mov    0xc(%ebp),%edx
   13a66:	8d 45 f2             	lea    -0xe(%ebp),%eax
   13a69:	0f 01 00             	sgdtl  (%eax)
    struct gdt_ptr48 gdt_ptr;
    sgdt(&gdt_ptr);

    u32 *entry_ptr = (u32*)(gdt_ptr.base + (seg << 3));
   13a6c:	8b 4d 08             	mov    0x8(%ebp),%ecx
   13a6f:	8b 45 f4             	mov    -0xc(%ebp),%eax
   13a72:	8d 1c c8             	lea    (%eax,%ecx,8),%ebx
    entry->base = (entry_ptr[0] >> 16) | (entry_ptr[1] & 0xff000000) | ((entry_ptr[1] << 16) & 0xff0000);
   13a75:	8b 4b 04             	mov    0x4(%ebx),%ecx
   13a78:	8b 03                	mov    (%ebx),%eax
   13a7a:	c1 e8 10             	shr    $0x10,%eax
   13a7d:	89 ce                	mov    %ecx,%esi
   13a7f:	81 e6 00 00 00 ff    	and    $0xff000000,%esi
   13a85:	09 f0                	or     %esi,%eax
   13a87:	c1 e1 10             	shl    $0x10,%ecx
   13a8a:	81 e1 00 00 ff 00    	and    $0xff0000,%ecx
   13a90:	09 c8                	or     %ecx,%eax
   13a92:	89 02                	mov    %eax,(%edx)
    entry->limit = (entry_ptr[0] & 0xffff) | (entry_ptr[1] & 0xf0000);
   13a94:	0f b7 03             	movzwl (%ebx),%eax
   13a97:	8b 4b 04             	mov    0x4(%ebx),%ecx
   13a9a:	81 e1 00 00 0f 00    	and    $0xf0000,%ecx
   13aa0:	09 c8                	or     %ecx,%eax
   13aa2:	89 42 04             	mov    %eax,0x4(%edx)
    entry->attr = ((entry_ptr[1] >> 8) & 0xff) | ((entry_ptr[1] >> 16) & 0xf00);
   13aa5:	8b 43 04             	mov    0x4(%ebx),%eax
   13aa8:	0f b6 cc             	movzbl %ah,%ecx
   13aab:	c1 e8 10             	shr    $0x10,%eax
   13aae:	25 00 0f 00 00       	and    $0xf00,%eax
   13ab3:	09 c8                	or     %ecx,%eax
   13ab5:	89 42 08             	mov    %eax,0x8(%edx)
}
   13ab8:	83 c4 10             	add    $0x10,%esp
   13abb:	5b                   	pop    %ebx
   13abc:	5e                   	pop    %esi
   13abd:	5d                   	pop    %ebp
   13abe:	c3                   	ret    

00013abf <_irq_handler0>:

static void _irq_handler0(void)
{
    // ++_irq0_invoked;
    // printf("_irq0_invoked=%d\n", _irq0_invoked);
}
   13abf:	c3                   	ret    

00013ac0 <ide_write>:
    // ++_irq1_invoked;
    // printf("_irq0_invoked=%d\n", _irq0_invoked);
}

static void ide_write(u8 channel, u8 reg, u8 data)
{
   13ac0:	55                   	push   %ebp
   13ac1:	89 e5                	mov    %esp,%ebp
   13ac3:	57                   	push   %edi
   13ac4:	56                   	push   %esi
   13ac5:	53                   	push   %ebx
   13ac6:	83 ec 1c             	sub    $0x1c,%esp
   13ac9:	89 d3                	mov    %edx,%ebx
   13acb:	89 4d e4             	mov    %ecx,-0x1c(%ebp)
    if (ATA_REG_COMMAND < reg && reg < ATA_REG_CONTROL)
    {
        ide_write(channel, ATA_REG_CONTROL, ATA_CONTROL_HOB | _ide_info.channel[channel].irq_disable << ATA_CONTROL_NIEN_SHIFT);
   13ace:	0f b6 f0             	movzbl %al,%esi
    if (ATA_REG_COMMAND < reg && reg < ATA_REG_CONTROL)
   13ad1:	8d 42 f8             	lea    -0x8(%edx),%eax
   13ad4:	3c 03                	cmp    $0x3,%al
   13ad6:	77 53                	ja     13b2b <ide_write+0x6b>
        ide_write(channel, ATA_REG_CONTROL, ATA_CONTROL_HOB | _ide_info.channel[channel].irq_disable << ATA_CONTROL_NIEN_SHIFT);
   13ad8:	69 c6 3c 04 00 00    	imul   $0x43c,%esi,%eax
   13ade:	8d b8 20 b6 01 00    	lea    0x1b620(%eax),%edi
   13ae4:	0f b6 88 74 ba 01 00 	movzbl 0x1ba74(%eax),%ecx
   13aeb:	01 c9                	add    %ecx,%ecx
   13aed:	83 c9 80             	or     $0xffffff80,%ecx
   13af0:	0f b6 c9             	movzbl %cl,%ecx
   13af3:	ba 0c 00 00 00       	mov    $0xc,%edx
   13af8:	89 f0                	mov    %esi,%eax
   13afa:	e8 c1 ff ff ff       	call   13ac0 <ide_write>
        port_write_byte(_ide_info.channel[channel].cmd_base + reg - ATA_REG_SECTOR_COUNT1 + ATA_REG_SECTOR_COUNT0, data);
   13aff:	8b 87 48 04 00 00    	mov    0x448(%edi),%eax
   13b05:	0f b6 d3             	movzbl %bl,%edx
   13b08:	8d 54 02 fa          	lea    -0x6(%edx,%eax,1),%edx
    __asm__ volatile("outb %0, %1"
   13b0c:	8a 45 e4             	mov    -0x1c(%ebp),%al
   13b0f:	ee                   	out    %al,(%dx)
        ide_write(channel, ATA_REG_CONTROL, _ide_info.channel[channel].irq_disable << ATA_CONTROL_NIEN_SHIFT);
   13b10:	8a 8f 54 04 00 00    	mov    0x454(%edi),%cl
   13b16:	d1 e1                	shl    %ecx
   13b18:	0f b6 c9             	movzbl %cl,%ecx
   13b1b:	ba 0c 00 00 00       	mov    $0xc,%edx
   13b20:	89 f0                	mov    %esi,%eax
    }
    else
    {
        printf("%s(): unexpecting reg: 0x%x\n", __func__, reg);
    }
}
   13b22:	83 c4 1c             	add    $0x1c,%esp
   13b25:	5b                   	pop    %ebx
   13b26:	5e                   	pop    %esi
   13b27:	5f                   	pop    %edi
   13b28:	5d                   	pop    %ebp
        ide_write(channel, ATA_REG_CONTROL, _ide_info.channel[channel].irq_disable << ATA_CONTROL_NIEN_SHIFT);
   13b29:	eb 95                	jmp    13ac0 <ide_write>
        port_write_byte(_ide_info.channel[channel].cmd_base + reg, data);
   13b2b:	69 f6 3c 04 00 00    	imul   $0x43c,%esi,%esi
    else if (reg <= ATA_REG_COMMAND)
   13b31:	80 fa 07             	cmp    $0x7,%dl
   13b34:	77 0b                	ja     13b41 <ide_write+0x81>
        port_write_byte(_ide_info.channel[channel].cmd_base + reg, data);
   13b36:	0f b6 d2             	movzbl %dl,%edx
   13b39:	03 96 68 ba 01 00    	add    0x1ba68(%esi),%edx
   13b3f:	eb 1a                	jmp    13b5b <ide_write+0x9b>
    else if (reg <= ATA_REG_CONTROL)
   13b41:	80 fa 0c             	cmp    $0xc,%dl
   13b44:	75 08                	jne    13b4e <ide_write+0x8e>
        port_write_byte(_ide_info.channel[channel].ctrl_base + reg - ATA_REG_CONTROL, data);
   13b46:	8b 96 6c ba 01 00    	mov    0x1ba6c(%esi),%edx
   13b4c:	eb 0d                	jmp    13b5b <ide_write+0x9b>
        port_write_byte(_ide_info.channel[channel].busmaster_base + reg - IDE_REG_BM_COMMAND, data);
   13b4e:	8b 86 70 ba 01 00    	mov    0x1ba70(%esi),%eax
   13b54:	0f b6 d2             	movzbl %dl,%edx
   13b57:	8d 54 02 f3          	lea    -0xd(%edx,%eax,1),%edx
   13b5b:	8a 45 e4             	mov    -0x1c(%ebp),%al
   13b5e:	ee                   	out    %al,(%dx)
}
   13b5f:	83 c4 1c             	add    $0x1c,%esp
   13b62:	5b                   	pop    %ebx
   13b63:	5e                   	pop    %esi
   13b64:	5f                   	pop    %edi
   13b65:	5d                   	pop    %ebp
   13b66:	c3                   	ret    

00013b67 <ide_read>:
        data = port_read_byte(_ide_info.channel[channel].cmd_base + reg - ATA_REG_SECTOR_COUNT1 + ATA_REG_SECTOR_COUNT0);
